   1              		.syntax unified
   2              		.cpu cortex-m4
   3              		.fpu softvfp
   4              		.eabi_attribute 20, 1
   5              		.eabi_attribute 21, 1
   6              		.eabi_attribute 23, 3
   7              		.eabi_attribute 24, 1
   8              		.eabi_attribute 25, 1
   9              		.eabi_attribute 26, 1
  10              		.eabi_attribute 30, 6
  11              		.eabi_attribute 34, 1
  12              		.eabi_attribute 18, 4
  13              		.thumb
  14              		.file	"stm32f4_discovery.c"
  15              		.text
  16              	.Ltext0:
  17              		.cfi_sections	.debug_frame
  18              		.global	GPIO_PORT
  19              		.section	.data.GPIO_PORT,"aw",%progbits
  20              		.align	2
  23              	GPIO_PORT:
  24 0000 000C0240 		.word	1073875968
  25 0004 000C0240 		.word	1073875968
  26 0008 000C0240 		.word	1073875968
  27 000c 000C0240 		.word	1073875968
  28              		.global	GPIO_PIN
  29              		.section	.rodata.GPIO_PIN,"a",%progbits
  30              		.align	2
  33              	GPIO_PIN:
  34 0000 0010     		.short	4096
  35 0002 0020     		.short	8192
  36 0004 0040     		.short	16384
  37 0006 0080     		.short	-32768
  38              		.global	GPIO_CLK
  39              		.section	.rodata.GPIO_CLK,"a",%progbits
  40              		.align	2
  43              	GPIO_CLK:
  44 0000 08000000 		.word	8
  45 0004 08000000 		.word	8
  46 0008 08000000 		.word	8
  47 000c 08000000 		.word	8
  48              		.global	BUTTON_PORT
  49              		.section	.data.BUTTON_PORT,"aw",%progbits
  50              		.align	2
  53              	BUTTON_PORT:
  54 0000 00000240 		.word	1073872896
  55              		.global	BUTTON_PIN
  56              		.section	.rodata.BUTTON_PIN,"a",%progbits
  57              		.align	2
  60              	BUTTON_PIN:
  61 0000 0100     		.short	1
  62              		.global	BUTTON_CLK
  63 0002 0000     		.section	.rodata.BUTTON_CLK,"a",%progbits
  64              		.align	2
  67              	BUTTON_CLK:
  68 0000 01000000 		.word	1
  69              		.global	BUTTON_EXTI_LINE
  70              		.section	.rodata.BUTTON_EXTI_LINE,"a",%progbits
  71              		.align	2
  74              	BUTTON_EXTI_LINE:
  75 0000 0100     		.short	1
  76              		.global	BUTTON_PORT_SOURCE
  77 0002 0000     		.section	.rodata.BUTTON_PORT_SOURCE,"a",%progbits
  78              		.align	2
  81              	BUTTON_PORT_SOURCE:
  82 0000 00       		.space	1
  83              		.global	BUTTON_PIN_SOURCE
  84 0001 000000   		.section	.rodata.BUTTON_PIN_SOURCE,"a",%progbits
  85              		.align	2
  88              	BUTTON_PIN_SOURCE:
  89 0000 00       		.space	1
  90              		.global	BUTTON_IRQn
  91 0001 000000   		.section	.rodata.BUTTON_IRQn,"a",%progbits
  92              		.align	2
  95              	BUTTON_IRQn:
  96 0000 06       		.byte	6
  97              		.comm	NVIC_InitStructure,4,4
  98 0001 000000   		.section	.text.STM_EVAL_LEDInit,"ax",%progbits
  99              		.align	2
 100              		.global	STM_EVAL_LEDInit
 101              		.thumb
 102              		.thumb_func
 104              	STM_EVAL_LEDInit:
 105              	.LFB110:
 106              		.file 1 "../src/stm32f4_discovery.c"
   1:../src/stm32f4_discovery.c **** /**
   2:../src/stm32f4_discovery.c ****   ******************************************************************************
   3:../src/stm32f4_discovery.c ****   * @file    stm32f4_discovery.c
   4:../src/stm32f4_discovery.c ****   * @author  MCD Application Team
   5:../src/stm32f4_discovery.c ****   * @version V1.1.0
   6:../src/stm32f4_discovery.c ****   * @date    28-October-2011
   7:../src/stm32f4_discovery.c ****   * @brief   This file provides set of firmware functions to manage Leds and
   8:../src/stm32f4_discovery.c ****   *          push-button available on STM32F4-Discovery Kit from STMicroelectronics.
   9:../src/stm32f4_discovery.c ****   ******************************************************************************
  10:../src/stm32f4_discovery.c ****   * @attention
  11:../src/stm32f4_discovery.c ****   *
  12:../src/stm32f4_discovery.c ****   * THE PRESENT FIRMWARE WHICH IS FOR GUIDANCE ONLY AIMS AT PROVIDING CUSTOMERS
  13:../src/stm32f4_discovery.c ****   * WITH CODING INFORMATION REGARDING THEIR PRODUCTS IN ORDER FOR THEM TO SAVE
  14:../src/stm32f4_discovery.c ****   * TIME. AS A RESULT, STMICROELECTRONICS SHALL NOT BE HELD LIABLE FOR ANY
  15:../src/stm32f4_discovery.c ****   * DIRECT, INDIRECT OR CONSEQUENTIAL DAMAGES WITH RESPECT TO ANY CLAIMS ARISING
  16:../src/stm32f4_discovery.c ****   * FROM THE CONTENT OF SUCH FIRMWARE AND/OR THE USE MADE BY CUSTOMERS OF THE
  17:../src/stm32f4_discovery.c ****   * CODING INFORMATION CONTAINED HEREIN IN CONNECTION WITH THEIR PRODUCTS.
  18:../src/stm32f4_discovery.c ****   *
  19:../src/stm32f4_discovery.c ****   * <h2><center>&copy; COPYRIGHT 2011 STMicroelectronics</center></h2>
  20:../src/stm32f4_discovery.c ****   ******************************************************************************
  21:../src/stm32f4_discovery.c ****   */ 
  22:../src/stm32f4_discovery.c ****   
  23:../src/stm32f4_discovery.c **** /* Includes ------------------------------------------------------------------*/
  24:../src/stm32f4_discovery.c **** #include "stm32f4_discovery.h"
  25:../src/stm32f4_discovery.c **** 
  26:../src/stm32f4_discovery.c **** /** @addtogroup Utilities
  27:../src/stm32f4_discovery.c ****   * @{
  28:../src/stm32f4_discovery.c ****   */ 
  29:../src/stm32f4_discovery.c **** 
  30:../src/stm32f4_discovery.c **** /** @addtogroup STM32F4_DISCOVERY
  31:../src/stm32f4_discovery.c ****   * @{
  32:../src/stm32f4_discovery.c ****   */   
  33:../src/stm32f4_discovery.c ****     
  34:../src/stm32f4_discovery.c **** /** @defgroup STM32F4_DISCOVERY_LOW_LEVEL 
  35:../src/stm32f4_discovery.c ****   * @brief This file provides set of firmware functions to manage Leds and push-button
  36:../src/stm32f4_discovery.c ****   *        available on STM32F4-Discovery Kit from STMicroelectronics.
  37:../src/stm32f4_discovery.c ****   * @{
  38:../src/stm32f4_discovery.c ****   */ 
  39:../src/stm32f4_discovery.c **** 
  40:../src/stm32f4_discovery.c **** /** @defgroup STM32F4_DISCOVERY_LOW_LEVEL_Private_TypesDefinitions
  41:../src/stm32f4_discovery.c ****   * @{
  42:../src/stm32f4_discovery.c ****   */ 
  43:../src/stm32f4_discovery.c **** /**
  44:../src/stm32f4_discovery.c ****   * @}
  45:../src/stm32f4_discovery.c ****   */ 
  46:../src/stm32f4_discovery.c **** 
  47:../src/stm32f4_discovery.c **** 
  48:../src/stm32f4_discovery.c **** /** @defgroup STM32F4_DISCOVERY_LOW_LEVEL_Private_Defines
  49:../src/stm32f4_discovery.c ****   * @{
  50:../src/stm32f4_discovery.c ****   */ 
  51:../src/stm32f4_discovery.c **** /**
  52:../src/stm32f4_discovery.c ****   * @}
  53:../src/stm32f4_discovery.c ****   */ 
  54:../src/stm32f4_discovery.c **** 
  55:../src/stm32f4_discovery.c **** 
  56:../src/stm32f4_discovery.c **** /** @defgroup STM32F4_DISCOVERY_LOW_LEVEL_Private_Macros
  57:../src/stm32f4_discovery.c ****   * @{
  58:../src/stm32f4_discovery.c ****   */ 
  59:../src/stm32f4_discovery.c **** /**
  60:../src/stm32f4_discovery.c ****   * @}
  61:../src/stm32f4_discovery.c ****   */ 
  62:../src/stm32f4_discovery.c **** 
  63:../src/stm32f4_discovery.c **** 
  64:../src/stm32f4_discovery.c **** /** @defgroup STM32F4_DISCOVERY_LOW_LEVEL_Private_Variables
  65:../src/stm32f4_discovery.c ****   * @{
  66:../src/stm32f4_discovery.c ****   */ 
  67:../src/stm32f4_discovery.c **** GPIO_TypeDef* GPIO_PORT[LEDn] = {LED4_GPIO_PORT, LED3_GPIO_PORT, LED5_GPIO_PORT,
  68:../src/stm32f4_discovery.c ****                                  LED6_GPIO_PORT};
  69:../src/stm32f4_discovery.c **** const uint16_t GPIO_PIN[LEDn] = {LED4_PIN, LED3_PIN, LED5_PIN,
  70:../src/stm32f4_discovery.c ****                                  LED6_PIN};
  71:../src/stm32f4_discovery.c **** const uint32_t GPIO_CLK[LEDn] = {LED4_GPIO_CLK, LED3_GPIO_CLK, LED5_GPIO_CLK,
  72:../src/stm32f4_discovery.c ****                                  LED6_GPIO_CLK};
  73:../src/stm32f4_discovery.c **** 
  74:../src/stm32f4_discovery.c **** GPIO_TypeDef* BUTTON_PORT[BUTTONn] = {USER_BUTTON_GPIO_PORT }; 
  75:../src/stm32f4_discovery.c **** 
  76:../src/stm32f4_discovery.c **** const uint16_t BUTTON_PIN[BUTTONn] = {USER_BUTTON_PIN }; 
  77:../src/stm32f4_discovery.c **** 
  78:../src/stm32f4_discovery.c **** const uint32_t BUTTON_CLK[BUTTONn] = {USER_BUTTON_GPIO_CLK };
  79:../src/stm32f4_discovery.c **** 
  80:../src/stm32f4_discovery.c **** const uint16_t BUTTON_EXTI_LINE[BUTTONn] = {USER_BUTTON_EXTI_LINE };
  81:../src/stm32f4_discovery.c **** 
  82:../src/stm32f4_discovery.c **** const uint8_t BUTTON_PORT_SOURCE[BUTTONn] = {USER_BUTTON_EXTI_PORT_SOURCE};
  83:../src/stm32f4_discovery.c **** 								 
  84:../src/stm32f4_discovery.c **** const uint8_t BUTTON_PIN_SOURCE[BUTTONn] = {USER_BUTTON_EXTI_PIN_SOURCE }; 
  85:../src/stm32f4_discovery.c **** const uint8_t BUTTON_IRQn[BUTTONn] = {USER_BUTTON_EXTI_IRQn };
  86:../src/stm32f4_discovery.c **** 
  87:../src/stm32f4_discovery.c **** NVIC_InitTypeDef   NVIC_InitStructure;
  88:../src/stm32f4_discovery.c **** 
  89:../src/stm32f4_discovery.c **** /**
  90:../src/stm32f4_discovery.c ****   * @}
  91:../src/stm32f4_discovery.c ****   */ 
  92:../src/stm32f4_discovery.c **** 
  93:../src/stm32f4_discovery.c **** 
  94:../src/stm32f4_discovery.c **** /** @defgroup STM32F4_DISCOVERY_LOW_LEVEL_Private_FunctionPrototypes
  95:../src/stm32f4_discovery.c ****   * @{
  96:../src/stm32f4_discovery.c ****   */ 
  97:../src/stm32f4_discovery.c **** 
  98:../src/stm32f4_discovery.c **** /**
  99:../src/stm32f4_discovery.c ****   * @}
 100:../src/stm32f4_discovery.c ****   */ 
 101:../src/stm32f4_discovery.c **** 
 102:../src/stm32f4_discovery.c **** /** @defgroup STM32F4_DISCOVERY_LOW_LEVEL_Private_Functions
 103:../src/stm32f4_discovery.c ****   * @{
 104:../src/stm32f4_discovery.c ****   */ 
 105:../src/stm32f4_discovery.c **** 
 106:../src/stm32f4_discovery.c **** /**
 107:../src/stm32f4_discovery.c ****   * @brief  Configures LED GPIO.
 108:../src/stm32f4_discovery.c ****   * @param  Led: Specifies the Led to be configured. 
 109:../src/stm32f4_discovery.c ****   *   This parameter can be one of following parameters:
 110:../src/stm32f4_discovery.c ****   *     @arg LED4
 111:../src/stm32f4_discovery.c ****   *     @arg LED3
 112:../src/stm32f4_discovery.c ****   *     @arg LED5
 113:../src/stm32f4_discovery.c ****   *     @arg LED6
 114:../src/stm32f4_discovery.c ****   * @retval None
 115:../src/stm32f4_discovery.c ****   */
 116:../src/stm32f4_discovery.c **** void STM_EVAL_LEDInit(Led_TypeDef Led)
 117:../src/stm32f4_discovery.c **** {
 107              		.loc 1 117 0
 108              		.cfi_startproc
 109              		@ args = 0, pretend = 0, frame = 16
 110              		@ frame_needed = 1, uses_anonymous_args = 0
 111 0000 80B5     		push	{r7, lr}
 112              	.LCFI0:
 113              		.cfi_def_cfa_offset 8
 114              		.cfi_offset 14, -4
 115              		.cfi_offset 7, -8
 116 0002 84B0     		sub	sp, sp, #16
 117              	.LCFI1:
 118              		.cfi_def_cfa_offset 24
 119 0004 00AF     		add	r7, sp, #0
 120              	.LCFI2:
 121              		.cfi_def_cfa_register 7
 122 0006 0346     		mov	r3, r0
 123 0008 FB71     		strb	r3, [r7, #7]
 118:../src/stm32f4_discovery.c ****   GPIO_InitTypeDef  GPIO_InitStructure;
 119:../src/stm32f4_discovery.c ****   
 120:../src/stm32f4_discovery.c ****   /* Enable the GPIO_LED Clock */
 121:../src/stm32f4_discovery.c ****   RCC_AHB1PeriphClockCmd(GPIO_CLK[Led], ENABLE);
 124              		.loc 1 121 0
 125 000a FA79     		ldrb	r2, [r7, #7]	@ zero_extendqisi2
 126 000c 40F20003 		movw	r3, #:lower16:GPIO_CLK
 127 0010 C0F20003 		movt	r3, #:upper16:GPIO_CLK
 128 0014 53F82230 		ldr	r3, [r3, r2, lsl #2]
 129 0018 1846     		mov	r0, r3
 130 001a 4FF00101 		mov	r1, #1
 131 001e FFF7FEFF 		bl	RCC_AHB1PeriphClockCmd
 122:../src/stm32f4_discovery.c **** 
 123:../src/stm32f4_discovery.c ****   /* Configure the GPIO_LED pin */
 124:../src/stm32f4_discovery.c ****   GPIO_InitStructure.GPIO_Pin = GPIO_PIN[Led];
 132              		.loc 1 124 0
 133 0022 FA79     		ldrb	r2, [r7, #7]	@ zero_extendqisi2
 134 0024 40F20003 		movw	r3, #:lower16:GPIO_PIN
 135 0028 C0F20003 		movt	r3, #:upper16:GPIO_PIN
 136 002c 33F81230 		ldrh	r3, [r3, r2, lsl #1]
 137 0030 BB60     		str	r3, [r7, #8]
 125:../src/stm32f4_discovery.c ****   GPIO_InitStructure.GPIO_Mode = GPIO_Mode_OUT;
 138              		.loc 1 125 0
 139 0032 4FF00103 		mov	r3, #1
 140 0036 3B73     		strb	r3, [r7, #12]
 126:../src/stm32f4_discovery.c ****   GPIO_InitStructure.GPIO_OType = GPIO_OType_PP;
 141              		.loc 1 126 0
 142 0038 4FF00003 		mov	r3, #0
 143 003c BB73     		strb	r3, [r7, #14]
 127:../src/stm32f4_discovery.c ****   GPIO_InitStructure.GPIO_PuPd = GPIO_PuPd_UP;
 144              		.loc 1 127 0
 145 003e 4FF00103 		mov	r3, #1
 146 0042 FB73     		strb	r3, [r7, #15]
 128:../src/stm32f4_discovery.c ****   GPIO_InitStructure.GPIO_Speed = GPIO_Speed_50MHz;
 147              		.loc 1 128 0
 148 0044 4FF00203 		mov	r3, #2
 149 0048 7B73     		strb	r3, [r7, #13]
 129:../src/stm32f4_discovery.c ****   GPIO_Init(GPIO_PORT[Led], &GPIO_InitStructure);
 150              		.loc 1 129 0
 151 004a FA79     		ldrb	r2, [r7, #7]	@ zero_extendqisi2
 152 004c 40F20003 		movw	r3, #:lower16:GPIO_PORT
 153 0050 C0F20003 		movt	r3, #:upper16:GPIO_PORT
 154 0054 53F82230 		ldr	r3, [r3, r2, lsl #2]
 155 0058 1846     		mov	r0, r3
 156 005a 07F10803 		add	r3, r7, #8
 157 005e 1946     		mov	r1, r3
 158 0060 FFF7FEFF 		bl	GPIO_Init
 130:../src/stm32f4_discovery.c **** }
 159              		.loc 1 130 0
 160 0064 07F11007 		add	r7, r7, #16
 161 0068 BD46     		mov	sp, r7
 162 006a 80BD     		pop	{r7, pc}
 163              		.cfi_endproc
 164              	.LFE110:
 166              		.section	.text.STM_EVAL_LEDOn,"ax",%progbits
 167              		.align	2
 168              		.global	STM_EVAL_LEDOn
 169              		.thumb
 170              		.thumb_func
 172              	STM_EVAL_LEDOn:
 173              	.LFB111:
 131:../src/stm32f4_discovery.c **** 
 132:../src/stm32f4_discovery.c **** /**
 133:../src/stm32f4_discovery.c ****   * @brief  Turns selected LED On.
 134:../src/stm32f4_discovery.c ****   * @param  Led: Specifies the Led to be set on. 
 135:../src/stm32f4_discovery.c ****   *   This parameter can be one of following parameters:
 136:../src/stm32f4_discovery.c ****   *     @arg LED4
 137:../src/stm32f4_discovery.c ****   *     @arg LED3
 138:../src/stm32f4_discovery.c ****   *     @arg LED5
 139:../src/stm32f4_discovery.c ****   *     @arg LED6  
 140:../src/stm32f4_discovery.c ****   * @retval None
 141:../src/stm32f4_discovery.c ****   */
 142:../src/stm32f4_discovery.c **** void STM_EVAL_LEDOn(Led_TypeDef Led)
 143:../src/stm32f4_discovery.c **** {
 174              		.loc 1 143 0
 175              		.cfi_startproc
 176              		@ args = 0, pretend = 0, frame = 8
 177              		@ frame_needed = 1, uses_anonymous_args = 0
 178              		@ link register save eliminated.
 179 0000 80B4     		push	{r7}
 180              	.LCFI3:
 181              		.cfi_def_cfa_offset 4
 182              		.cfi_offset 7, -4
 183 0002 83B0     		sub	sp, sp, #12
 184              	.LCFI4:
 185              		.cfi_def_cfa_offset 16
 186 0004 00AF     		add	r7, sp, #0
 187              	.LCFI5:
 188              		.cfi_def_cfa_register 7
 189 0006 0346     		mov	r3, r0
 190 0008 FB71     		strb	r3, [r7, #7]
 144:../src/stm32f4_discovery.c ****   GPIO_PORT[Led]->BSRRL = GPIO_PIN[Led];
 191              		.loc 1 144 0
 192 000a FA79     		ldrb	r2, [r7, #7]	@ zero_extendqisi2
 193 000c 40F20003 		movw	r3, #:lower16:GPIO_PORT
 194 0010 C0F20003 		movt	r3, #:upper16:GPIO_PORT
 195 0014 53F82220 		ldr	r2, [r3, r2, lsl #2]
 196 0018 F979     		ldrb	r1, [r7, #7]	@ zero_extendqisi2
 197 001a 40F20003 		movw	r3, #:lower16:GPIO_PIN
 198 001e C0F20003 		movt	r3, #:upper16:GPIO_PIN
 199 0022 33F81130 		ldrh	r3, [r3, r1, lsl #1]
 200 0026 1383     		strh	r3, [r2, #24]	@ movhi
 145:../src/stm32f4_discovery.c **** }
 201              		.loc 1 145 0
 202 0028 07F10C07 		add	r7, r7, #12
 203 002c BD46     		mov	sp, r7
 204 002e 80BC     		pop	{r7}
 205 0030 7047     		bx	lr
 206              		.cfi_endproc
 207              	.LFE111:
 209 0032 00BF     		.section	.text.STM_EVAL_LEDOff,"ax",%progbits
 210              		.align	2
 211              		.global	STM_EVAL_LEDOff
 212              		.thumb
 213              		.thumb_func
 215              	STM_EVAL_LEDOff:
 216              	.LFB112:
 146:../src/stm32f4_discovery.c **** 
 147:../src/stm32f4_discovery.c **** /**
 148:../src/stm32f4_discovery.c ****   * @brief  Turns selected LED Off.
 149:../src/stm32f4_discovery.c ****   * @param  Led: Specifies the Led to be set off. 
 150:../src/stm32f4_discovery.c ****   *   This parameter can be one of following parameters:
 151:../src/stm32f4_discovery.c ****   *     @arg LED4
 152:../src/stm32f4_discovery.c ****   *     @arg LED3
 153:../src/stm32f4_discovery.c ****   *     @arg LED5
 154:../src/stm32f4_discovery.c ****   *     @arg LED6 
 155:../src/stm32f4_discovery.c ****   * @retval None
 156:../src/stm32f4_discovery.c ****   */
 157:../src/stm32f4_discovery.c **** void STM_EVAL_LEDOff(Led_TypeDef Led)
 158:../src/stm32f4_discovery.c **** {
 217              		.loc 1 158 0
 218              		.cfi_startproc
 219              		@ args = 0, pretend = 0, frame = 8
 220              		@ frame_needed = 1, uses_anonymous_args = 0
 221              		@ link register save eliminated.
 222 0000 80B4     		push	{r7}
 223              	.LCFI6:
 224              		.cfi_def_cfa_offset 4
 225              		.cfi_offset 7, -4
 226 0002 83B0     		sub	sp, sp, #12
 227              	.LCFI7:
 228              		.cfi_def_cfa_offset 16
 229 0004 00AF     		add	r7, sp, #0
 230              	.LCFI8:
 231              		.cfi_def_cfa_register 7
 232 0006 0346     		mov	r3, r0
 233 0008 FB71     		strb	r3, [r7, #7]
 159:../src/stm32f4_discovery.c ****   GPIO_PORT[Led]->BSRRH = GPIO_PIN[Led];  
 234              		.loc 1 159 0
 235 000a FA79     		ldrb	r2, [r7, #7]	@ zero_extendqisi2
 236 000c 40F20003 		movw	r3, #:lower16:GPIO_PORT
 237 0010 C0F20003 		movt	r3, #:upper16:GPIO_PORT
 238 0014 53F82220 		ldr	r2, [r3, r2, lsl #2]
 239 0018 F979     		ldrb	r1, [r7, #7]	@ zero_extendqisi2
 240 001a 40F20003 		movw	r3, #:lower16:GPIO_PIN
 241 001e C0F20003 		movt	r3, #:upper16:GPIO_PIN
 242 0022 33F81130 		ldrh	r3, [r3, r1, lsl #1]
 243 0026 5383     		strh	r3, [r2, #26]	@ movhi
 160:../src/stm32f4_discovery.c **** }
 244              		.loc 1 160 0
 245 0028 07F10C07 		add	r7, r7, #12
 246 002c BD46     		mov	sp, r7
 247 002e 80BC     		pop	{r7}
 248 0030 7047     		bx	lr
 249              		.cfi_endproc
 250              	.LFE112:
 252 0032 00BF     		.section	.text.STM_EVAL_LEDToggle,"ax",%progbits
 253              		.align	2
 254              		.global	STM_EVAL_LEDToggle
 255              		.thumb
 256              		.thumb_func
 258              	STM_EVAL_LEDToggle:
 259              	.LFB113:
 161:../src/stm32f4_discovery.c **** 
 162:../src/stm32f4_discovery.c **** /**
 163:../src/stm32f4_discovery.c ****   * @brief  Toggles the selected LED.
 164:../src/stm32f4_discovery.c ****   * @param  Led: Specifies the Led to be toggled. 
 165:../src/stm32f4_discovery.c ****   *   This parameter can be one of following parameters:
 166:../src/stm32f4_discovery.c ****   *     @arg LED4
 167:../src/stm32f4_discovery.c ****   *     @arg LED3
 168:../src/stm32f4_discovery.c ****   *     @arg LED5
 169:../src/stm32f4_discovery.c ****   *     @arg LED6  
 170:../src/stm32f4_discovery.c ****   * @retval None
 171:../src/stm32f4_discovery.c ****   */
 172:../src/stm32f4_discovery.c **** void STM_EVAL_LEDToggle(Led_TypeDef Led)
 173:../src/stm32f4_discovery.c **** {
 260              		.loc 1 173 0
 261              		.cfi_startproc
 262              		@ args = 0, pretend = 0, frame = 8
 263              		@ frame_needed = 1, uses_anonymous_args = 0
 264              		@ link register save eliminated.
 265 0000 80B4     		push	{r7}
 266              	.LCFI9:
 267              		.cfi_def_cfa_offset 4
 268              		.cfi_offset 7, -4
 269 0002 83B0     		sub	sp, sp, #12
 270              	.LCFI10:
 271              		.cfi_def_cfa_offset 16
 272 0004 00AF     		add	r7, sp, #0
 273              	.LCFI11:
 274              		.cfi_def_cfa_register 7
 275 0006 0346     		mov	r3, r0
 276 0008 FB71     		strb	r3, [r7, #7]
 174:../src/stm32f4_discovery.c ****   GPIO_PORT[Led]->ODR ^= GPIO_PIN[Led];
 277              		.loc 1 174 0
 278 000a FA79     		ldrb	r2, [r7, #7]	@ zero_extendqisi2
 279 000c 40F20003 		movw	r3, #:lower16:GPIO_PORT
 280 0010 C0F20003 		movt	r3, #:upper16:GPIO_PORT
 281 0014 53F82220 		ldr	r2, [r3, r2, lsl #2]
 282 0018 F979     		ldrb	r1, [r7, #7]	@ zero_extendqisi2
 283 001a 40F20003 		movw	r3, #:lower16:GPIO_PORT
 284 001e C0F20003 		movt	r3, #:upper16:GPIO_PORT
 285 0022 53F82130 		ldr	r3, [r3, r1, lsl #2]
 286 0026 5969     		ldr	r1, [r3, #20]
 287 0028 F879     		ldrb	r0, [r7, #7]	@ zero_extendqisi2
 288 002a 40F20003 		movw	r3, #:lower16:GPIO_PIN
 289 002e C0F20003 		movt	r3, #:upper16:GPIO_PIN
 290 0032 33F81030 		ldrh	r3, [r3, r0, lsl #1]
 291 0036 4B40     		eors	r3, r3, r1
 292 0038 5361     		str	r3, [r2, #20]
 175:../src/stm32f4_discovery.c **** }
 293              		.loc 1 175 0
 294 003a 07F10C07 		add	r7, r7, #12
 295 003e BD46     		mov	sp, r7
 296 0040 80BC     		pop	{r7}
 297 0042 7047     		bx	lr
 298              		.cfi_endproc
 299              	.LFE113:
 301              		.section	.text.STM_EVAL_PBInit,"ax",%progbits
 302              		.align	2
 303              		.global	STM_EVAL_PBInit
 304              		.thumb
 305              		.thumb_func
 307              	STM_EVAL_PBInit:
 308              	.LFB114:
 176:../src/stm32f4_discovery.c **** 
 177:../src/stm32f4_discovery.c **** /**
 178:../src/stm32f4_discovery.c ****   * @brief  Configures Button GPIO and EXTI Line.
 179:../src/stm32f4_discovery.c ****   * @param  Button: Specifies the Button to be configured.
 180:../src/stm32f4_discovery.c ****   *   This parameter should be: BUTTON_USER
 181:../src/stm32f4_discovery.c ****   * @param  Button_Mode: Specifies Button mode.
 182:../src/stm32f4_discovery.c ****   *   This parameter can be one of following parameters:   
 183:../src/stm32f4_discovery.c ****   *     @arg BUTTON_MODE_GPIO: Button will be used as simple IO 
 184:../src/stm32f4_discovery.c ****   *     @arg BUTTON_MODE_EXTI: Button will be connected to EXTI line with interrupt
 185:../src/stm32f4_discovery.c ****   *                            generation capability  
 186:../src/stm32f4_discovery.c ****   * @retval None
 187:../src/stm32f4_discovery.c ****   */
 188:../src/stm32f4_discovery.c **** void STM_EVAL_PBInit(Button_TypeDef Button, ButtonMode_TypeDef Button_Mode)
 189:../src/stm32f4_discovery.c **** {
 309              		.loc 1 189 0
 310              		.cfi_startproc
 311              		@ args = 0, pretend = 0, frame = 32
 312              		@ frame_needed = 1, uses_anonymous_args = 0
 313 0000 80B5     		push	{r7, lr}
 314              	.LCFI12:
 315              		.cfi_def_cfa_offset 8
 316              		.cfi_offset 14, -4
 317              		.cfi_offset 7, -8
 318 0002 88B0     		sub	sp, sp, #32
 319              	.LCFI13:
 320              		.cfi_def_cfa_offset 40
 321 0004 00AF     		add	r7, sp, #0
 322              	.LCFI14:
 323              		.cfi_def_cfa_register 7
 324 0006 0246     		mov	r2, r0
 325 0008 0B46     		mov	r3, r1
 326 000a FA71     		strb	r2, [r7, #7]
 327 000c BB71     		strb	r3, [r7, #6]
 190:../src/stm32f4_discovery.c ****   GPIO_InitTypeDef GPIO_InitStructure;
 191:../src/stm32f4_discovery.c ****   EXTI_InitTypeDef EXTI_InitStructure;
 192:../src/stm32f4_discovery.c ****   NVIC_InitTypeDef NVIC_InitStructure;
 193:../src/stm32f4_discovery.c **** 
 194:../src/stm32f4_discovery.c ****   /* Enable the BUTTON Clock */
 195:../src/stm32f4_discovery.c ****   RCC_AHB1PeriphClockCmd(BUTTON_CLK[Button], ENABLE);
 328              		.loc 1 195 0
 329 000e FA79     		ldrb	r2, [r7, #7]	@ zero_extendqisi2
 330 0010 40F20003 		movw	r3, #:lower16:BUTTON_CLK
 331 0014 C0F20003 		movt	r3, #:upper16:BUTTON_CLK
 332 0018 53F82230 		ldr	r3, [r3, r2, lsl #2]
 333 001c 1846     		mov	r0, r3
 334 001e 4FF00101 		mov	r1, #1
 335 0022 FFF7FEFF 		bl	RCC_AHB1PeriphClockCmd
 196:../src/stm32f4_discovery.c ****   RCC_APB2PeriphClockCmd(RCC_APB2Periph_SYSCFG, ENABLE);
 336              		.loc 1 196 0
 337 0026 4FF48040 		mov	r0, #16384
 338 002a 4FF00101 		mov	r1, #1
 339 002e FFF7FEFF 		bl	RCC_APB2PeriphClockCmd
 197:../src/stm32f4_discovery.c **** 
 198:../src/stm32f4_discovery.c ****   /* Configure Button pin as input */
 199:../src/stm32f4_discovery.c ****   GPIO_InitStructure.GPIO_Mode = GPIO_Mode_IN;
 340              		.loc 1 199 0
 341 0032 4FF00003 		mov	r3, #0
 342 0036 3B77     		strb	r3, [r7, #28]
 200:../src/stm32f4_discovery.c ****   GPIO_InitStructure.GPIO_PuPd = GPIO_PuPd_NOPULL;
 343              		.loc 1 200 0
 344 0038 4FF00003 		mov	r3, #0
 345 003c FB77     		strb	r3, [r7, #31]
 201:../src/stm32f4_discovery.c ****   GPIO_InitStructure.GPIO_Pin = BUTTON_PIN[Button];
 346              		.loc 1 201 0
 347 003e FA79     		ldrb	r2, [r7, #7]	@ zero_extendqisi2
 348 0040 40F20003 		movw	r3, #:lower16:BUTTON_PIN
 349 0044 C0F20003 		movt	r3, #:upper16:BUTTON_PIN
 350 0048 33F81230 		ldrh	r3, [r3, r2, lsl #1]
 351 004c BB61     		str	r3, [r7, #24]
 202:../src/stm32f4_discovery.c ****   GPIO_Init(BUTTON_PORT[Button], &GPIO_InitStructure);
 352              		.loc 1 202 0
 353 004e FA79     		ldrb	r2, [r7, #7]	@ zero_extendqisi2
 354 0050 40F20003 		movw	r3, #:lower16:BUTTON_PORT
 355 0054 C0F20003 		movt	r3, #:upper16:BUTTON_PORT
 356 0058 53F82230 		ldr	r3, [r3, r2, lsl #2]
 357 005c 1846     		mov	r0, r3
 358 005e 07F11803 		add	r3, r7, #24
 359 0062 1946     		mov	r1, r3
 360 0064 FFF7FEFF 		bl	GPIO_Init
 203:../src/stm32f4_discovery.c **** 
 204:../src/stm32f4_discovery.c ****   if (Button_Mode == BUTTON_MODE_EXTI)
 361              		.loc 1 204 0
 362 0068 BB79     		ldrb	r3, [r7, #6]	@ zero_extendqisi2
 363 006a 012B     		cmp	r3, #1
 364 006c 3AD1     		bne	.L5
 205:../src/stm32f4_discovery.c ****   {
 206:../src/stm32f4_discovery.c ****     /* Connect Button EXTI Line to Button GPIO Pin */
 207:../src/stm32f4_discovery.c ****     SYSCFG_EXTILineConfig(BUTTON_PORT_SOURCE[Button], BUTTON_PIN_SOURCE[Button]);
 365              		.loc 1 207 0
 366 006e FA79     		ldrb	r2, [r7, #7]	@ zero_extendqisi2
 367 0070 40F20003 		movw	r3, #:lower16:BUTTON_PORT_SOURCE
 368 0074 C0F20003 		movt	r3, #:upper16:BUTTON_PORT_SOURCE
 369 0078 9A5C     		ldrb	r2, [r3, r2]	@ zero_extendqisi2
 370 007a F979     		ldrb	r1, [r7, #7]	@ zero_extendqisi2
 371 007c 40F20003 		movw	r3, #:lower16:BUTTON_PIN_SOURCE
 372 0080 C0F20003 		movt	r3, #:upper16:BUTTON_PIN_SOURCE
 373 0084 5B5C     		ldrb	r3, [r3, r1]	@ zero_extendqisi2
 374 0086 1046     		mov	r0, r2
 375 0088 1946     		mov	r1, r3
 376 008a FFF7FEFF 		bl	SYSCFG_EXTILineConfig
 208:../src/stm32f4_discovery.c **** 
 209:../src/stm32f4_discovery.c ****     /* Configure Button EXTI line */
 210:../src/stm32f4_discovery.c ****     EXTI_InitStructure.EXTI_Line = BUTTON_EXTI_LINE[Button];
 377              		.loc 1 210 0
 378 008e FA79     		ldrb	r2, [r7, #7]	@ zero_extendqisi2
 379 0090 40F20003 		movw	r3, #:lower16:BUTTON_EXTI_LINE
 380 0094 C0F20003 		movt	r3, #:upper16:BUTTON_EXTI_LINE
 381 0098 33F81230 		ldrh	r3, [r3, r2, lsl #1]
 382 009c 3B61     		str	r3, [r7, #16]
 211:../src/stm32f4_discovery.c ****     EXTI_InitStructure.EXTI_Mode = EXTI_Mode_Interrupt;
 383              		.loc 1 211 0
 384 009e 4FF00003 		mov	r3, #0
 385 00a2 3B75     		strb	r3, [r7, #20]
 212:../src/stm32f4_discovery.c ****     EXTI_InitStructure.EXTI_Trigger = EXTI_Trigger_Rising;  
 386              		.loc 1 212 0
 387 00a4 4FF00803 		mov	r3, #8
 388 00a8 7B75     		strb	r3, [r7, #21]
 213:../src/stm32f4_discovery.c ****     EXTI_InitStructure.EXTI_LineCmd = ENABLE;
 389              		.loc 1 213 0
 390 00aa 4FF00103 		mov	r3, #1
 391 00ae BB75     		strb	r3, [r7, #22]
 214:../src/stm32f4_discovery.c ****     EXTI_Init(&EXTI_InitStructure);
 392              		.loc 1 214 0
 393 00b0 07F11003 		add	r3, r7, #16
 394 00b4 1846     		mov	r0, r3
 395 00b6 FFF7FEFF 		bl	EXTI_Init
 215:../src/stm32f4_discovery.c **** 
 216:../src/stm32f4_discovery.c ****     /* Enable and set Button EXTI Interrupt to the lowest priority */
 217:../src/stm32f4_discovery.c ****     NVIC_InitStructure.NVIC_IRQChannel = BUTTON_IRQn[Button];
 396              		.loc 1 217 0
 397 00ba FA79     		ldrb	r2, [r7, #7]	@ zero_extendqisi2
 398 00bc 40F20003 		movw	r3, #:lower16:BUTTON_IRQn
 399 00c0 C0F20003 		movt	r3, #:upper16:BUTTON_IRQn
 400 00c4 9B5C     		ldrb	r3, [r3, r2]	@ zero_extendqisi2
 401 00c6 3B73     		strb	r3, [r7, #12]
 218:../src/stm32f4_discovery.c ****     NVIC_InitStructure.NVIC_IRQChannelPreemptionPriority = 0x0F;
 402              		.loc 1 218 0
 403 00c8 4FF00F03 		mov	r3, #15
 404 00cc 7B73     		strb	r3, [r7, #13]
 219:../src/stm32f4_discovery.c ****     NVIC_InitStructure.NVIC_IRQChannelSubPriority = 0x0F;
 405              		.loc 1 219 0
 406 00ce 4FF00F03 		mov	r3, #15
 407 00d2 BB73     		strb	r3, [r7, #14]
 220:../src/stm32f4_discovery.c ****     NVIC_InitStructure.NVIC_IRQChannelCmd = ENABLE;
 408              		.loc 1 220 0
 409 00d4 4FF00103 		mov	r3, #1
 410 00d8 FB73     		strb	r3, [r7, #15]
 221:../src/stm32f4_discovery.c **** 
 222:../src/stm32f4_discovery.c ****     NVIC_Init(&NVIC_InitStructure); 
 411              		.loc 1 222 0
 412 00da 07F10C03 		add	r3, r7, #12
 413 00de 1846     		mov	r0, r3
 414 00e0 FFF7FEFF 		bl	NVIC_Init
 415              	.L5:
 223:../src/stm32f4_discovery.c ****   }
 224:../src/stm32f4_discovery.c **** }
 416              		.loc 1 224 0
 417 00e4 07F12007 		add	r7, r7, #32
 418 00e8 BD46     		mov	sp, r7
 419 00ea 80BD     		pop	{r7, pc}
 420              		.cfi_endproc
 421              	.LFE114:
 423              		.section	.text.STM_EVAL_PBGetState,"ax",%progbits
 424              		.align	2
 425              		.global	STM_EVAL_PBGetState
 426              		.thumb
 427              		.thumb_func
 429              	STM_EVAL_PBGetState:
 430              	.LFB115:
 225:../src/stm32f4_discovery.c **** 
 226:../src/stm32f4_discovery.c **** /**
 227:../src/stm32f4_discovery.c ****   * @brief  Returns the selected Button state.
 228:../src/stm32f4_discovery.c ****   * @param  Button: Specifies the Button to be checked.
 229:../src/stm32f4_discovery.c ****   *   This parameter should be: BUTTON_USER  
 230:../src/stm32f4_discovery.c ****   * @retval The Button GPIO pin value.
 231:../src/stm32f4_discovery.c ****   */
 232:../src/stm32f4_discovery.c **** uint32_t STM_EVAL_PBGetState(Button_TypeDef Button)
 233:../src/stm32f4_discovery.c **** {
 431              		.loc 1 233 0
 432              		.cfi_startproc
 433              		@ args = 0, pretend = 0, frame = 8
 434              		@ frame_needed = 1, uses_anonymous_args = 0
 435 0000 80B5     		push	{r7, lr}
 436              	.LCFI15:
 437              		.cfi_def_cfa_offset 8
 438              		.cfi_offset 14, -4
 439              		.cfi_offset 7, -8
 440 0002 82B0     		sub	sp, sp, #8
 441              	.LCFI16:
 442              		.cfi_def_cfa_offset 16
 443 0004 00AF     		add	r7, sp, #0
 444              	.LCFI17:
 445              		.cfi_def_cfa_register 7
 446 0006 0346     		mov	r3, r0
 447 0008 FB71     		strb	r3, [r7, #7]
 234:../src/stm32f4_discovery.c ****   return GPIO_ReadInputDataBit(BUTTON_PORT[Button], BUTTON_PIN[Button]);
 448              		.loc 1 234 0
 449 000a FA79     		ldrb	r2, [r7, #7]	@ zero_extendqisi2
 450 000c 40F20003 		movw	r3, #:lower16:BUTTON_PORT
 451 0010 C0F20003 		movt	r3, #:upper16:BUTTON_PORT
 452 0014 53F82220 		ldr	r2, [r3, r2, lsl #2]
 453 0018 F979     		ldrb	r1, [r7, #7]	@ zero_extendqisi2
 454 001a 40F20003 		movw	r3, #:lower16:BUTTON_PIN
 455 001e C0F20003 		movt	r3, #:upper16:BUTTON_PIN
 456 0022 33F81130 		ldrh	r3, [r3, r1, lsl #1]
 457 0026 1046     		mov	r0, r2
 458 0028 1946     		mov	r1, r3
 459 002a FFF7FEFF 		bl	GPIO_ReadInputDataBit
 460 002e 0346     		mov	r3, r0
 235:../src/stm32f4_discovery.c **** }
 461              		.loc 1 235 0
 462 0030 1846     		mov	r0, r3
 463 0032 07F10807 		add	r7, r7, #8
 464 0036 BD46     		mov	sp, r7
 465 0038 80BD     		pop	{r7, pc}
 466              		.cfi_endproc
 467              	.LFE115:
 469 003a 00BF     		.text
 470              	.Letext0:
 471              		.file 2 "c:\\program files (x86)\\codesourcery\\sourcery_codebench_lite_for_arm_eabi\\bin\\../lib/
 472              		.file 3 "C:\\Users\\Anthony.Paterson@opus.co\\Documents\\git\\blink\\blink\\Libraries\\Device\\STM
 473              		.file 4 "C:\\Users\\Anthony.Paterson@opus.co\\Documents\\git\\blink\\blink\\Libraries\\STM32F4xx_S
 474              		.file 5 "C:\\Users\\Anthony.Paterson@opus.co\\Documents\\git\\blink\\blink\\Libraries\\STM32F4xx_S
 475              		.file 6 "C:\\Users\\Anthony.Paterson@opus.co\\Documents\\git\\blink\\blink\\Libraries\\STM32F4xx_S
 476              		.file 7 "../src/stm32f4_discovery.h"
 477              		.file 8 "C:\\Users\\Anthony.Paterson@opus.co\\Documents\\git\\blink\\blink\\Libraries\\CMSIS\\Incl