   1              		.syntax unified
   2              		.cpu cortex-m4
   3              		.fpu softvfp
   4              		.eabi_attribute 20, 1
   5              		.eabi_attribute 21, 1
   6              		.eabi_attribute 23, 3
   7              		.eabi_attribute 24, 1
   8              		.eabi_attribute 25, 1
   9              		.eabi_attribute 26, 1
  10              		.eabi_attribute 30, 6
  11              		.eabi_attribute 34, 1
  12              		.eabi_attribute 18, 4
  13              		.thumb
  14              		.file	"stm32f4xx_spi.c"
  15              		.text
  16              	.Ltext0:
  17              		.cfi_sections	.debug_frame
  18              		.section	.text.SPI_I2S_DeInit,"ax",%progbits
  19              		.align	2
  20              		.global	SPI_I2S_DeInit
  21              		.thumb
  22              		.thumb_func
  24              	SPI_I2S_DeInit:
  25              	.LFB110:
  26              		.file 1 "../Libraries/STM32F4xx_StdPeriph_Driver/src/stm32f4xx_spi.c"
   1:../Libraries/STM32F4xx_StdPeriph_Driver/src/stm32f4xx_spi.c **** /**
   2:../Libraries/STM32F4xx_StdPeriph_Driver/src/stm32f4xx_spi.c ****   ******************************************************************************
   3:../Libraries/STM32F4xx_StdPeriph_Driver/src/stm32f4xx_spi.c ****   * @file    stm32f4xx_spi.c
   4:../Libraries/STM32F4xx_StdPeriph_Driver/src/stm32f4xx_spi.c ****   * @author  MCD Application Team
   5:../Libraries/STM32F4xx_StdPeriph_Driver/src/stm32f4xx_spi.c ****   * @version V1.0.0
   6:../Libraries/STM32F4xx_StdPeriph_Driver/src/stm32f4xx_spi.c ****   * @date    30-September-2011
   7:../Libraries/STM32F4xx_StdPeriph_Driver/src/stm32f4xx_spi.c ****   * @brief   This file provides firmware functions to manage the following 
   8:../Libraries/STM32F4xx_StdPeriph_Driver/src/stm32f4xx_spi.c ****   *          functionalities of the Serial peripheral interface (SPI):
   9:../Libraries/STM32F4xx_StdPeriph_Driver/src/stm32f4xx_spi.c ****   *           - Initialization and Configuration
  10:../Libraries/STM32F4xx_StdPeriph_Driver/src/stm32f4xx_spi.c ****   *           - Data transfers functions
  11:../Libraries/STM32F4xx_StdPeriph_Driver/src/stm32f4xx_spi.c ****   *           - Hardware CRC Calculation
  12:../Libraries/STM32F4xx_StdPeriph_Driver/src/stm32f4xx_spi.c ****   *           - DMA transfers management
  13:../Libraries/STM32F4xx_StdPeriph_Driver/src/stm32f4xx_spi.c ****   *           - Interrupts and flags management 
  14:../Libraries/STM32F4xx_StdPeriph_Driver/src/stm32f4xx_spi.c ****   *           
  15:../Libraries/STM32F4xx_StdPeriph_Driver/src/stm32f4xx_spi.c ****   *  @verbatim
  16:../Libraries/STM32F4xx_StdPeriph_Driver/src/stm32f4xx_spi.c ****   *          
  17:../Libraries/STM32F4xx_StdPeriph_Driver/src/stm32f4xx_spi.c ****   *                    
  18:../Libraries/STM32F4xx_StdPeriph_Driver/src/stm32f4xx_spi.c ****   *          ===================================================================
  19:../Libraries/STM32F4xx_StdPeriph_Driver/src/stm32f4xx_spi.c ****   *                                 How to use this driver
  20:../Libraries/STM32F4xx_StdPeriph_Driver/src/stm32f4xx_spi.c ****   *          ===================================================================
  21:../Libraries/STM32F4xx_StdPeriph_Driver/src/stm32f4xx_spi.c ****   *    
  22:../Libraries/STM32F4xx_StdPeriph_Driver/src/stm32f4xx_spi.c ****   *          1. Enable peripheral clock using the following functions 
  23:../Libraries/STM32F4xx_StdPeriph_Driver/src/stm32f4xx_spi.c ****   *             RCC_APB2PeriphClockCmd(RCC_APB2Periph_SPI1, ENABLE) for SPI1
  24:../Libraries/STM32F4xx_StdPeriph_Driver/src/stm32f4xx_spi.c ****   *             RCC_APB1PeriphClockCmd(RCC_APB1Periph_SPI2, ENABLE) for SPI2
  25:../Libraries/STM32F4xx_StdPeriph_Driver/src/stm32f4xx_spi.c ****   *             RCC_APB1PeriphResetCmd(RCC_APB1Periph_SPI3, ENABLE) for SPI3.
  26:../Libraries/STM32F4xx_StdPeriph_Driver/src/stm32f4xx_spi.c ****   *
  27:../Libraries/STM32F4xx_StdPeriph_Driver/src/stm32f4xx_spi.c ****   *          2. Enable SCK, MOSI, MISO and NSS GPIO clocks using RCC_AHB1PeriphClockCmd()
  28:../Libraries/STM32F4xx_StdPeriph_Driver/src/stm32f4xx_spi.c ****   *             function.
  29:../Libraries/STM32F4xx_StdPeriph_Driver/src/stm32f4xx_spi.c ****   *             In I2S mode, if an external clock source is used then the I2S CKIN pin GPIO
  30:../Libraries/STM32F4xx_StdPeriph_Driver/src/stm32f4xx_spi.c ****   *             clock should also be enabled.
  31:../Libraries/STM32F4xx_StdPeriph_Driver/src/stm32f4xx_spi.c ****   *
  32:../Libraries/STM32F4xx_StdPeriph_Driver/src/stm32f4xx_spi.c ****   *          3. Peripherals alternate function: 
  33:../Libraries/STM32F4xx_StdPeriph_Driver/src/stm32f4xx_spi.c ****   *                 - Connect the pin to the desired peripherals' Alternate 
  34:../Libraries/STM32F4xx_StdPeriph_Driver/src/stm32f4xx_spi.c ****   *                   Function (AF) using GPIO_PinAFConfig() function
  35:../Libraries/STM32F4xx_StdPeriph_Driver/src/stm32f4xx_spi.c ****   *                 - Configure the desired pin in alternate function by:
  36:../Libraries/STM32F4xx_StdPeriph_Driver/src/stm32f4xx_spi.c ****   *                   GPIO_InitStruct->GPIO_Mode = GPIO_Mode_AF
  37:../Libraries/STM32F4xx_StdPeriph_Driver/src/stm32f4xx_spi.c ****   *                 - Select the type, pull-up/pull-down and output speed via 
  38:../Libraries/STM32F4xx_StdPeriph_Driver/src/stm32f4xx_spi.c ****   *                   GPIO_PuPd, GPIO_OType and GPIO_Speed members
  39:../Libraries/STM32F4xx_StdPeriph_Driver/src/stm32f4xx_spi.c ****   *                 - Call GPIO_Init() function
  40:../Libraries/STM32F4xx_StdPeriph_Driver/src/stm32f4xx_spi.c ****   *              In I2S mode, if an external clock source is used then the I2S CKIN pin
  41:../Libraries/STM32F4xx_StdPeriph_Driver/src/stm32f4xx_spi.c ****   *              should be also configured in Alternate function Push-pull pull-up mode. 
  42:../Libraries/STM32F4xx_StdPeriph_Driver/src/stm32f4xx_spi.c ****   *        
  43:../Libraries/STM32F4xx_StdPeriph_Driver/src/stm32f4xx_spi.c ****   *          4. Program the Polarity, Phase, First Data, Baud Rate Prescaler, Slave 
  44:../Libraries/STM32F4xx_StdPeriph_Driver/src/stm32f4xx_spi.c ****   *             Management, Peripheral Mode and CRC Polynomial values using the SPI_Init()
  45:../Libraries/STM32F4xx_StdPeriph_Driver/src/stm32f4xx_spi.c ****   *             function.
  46:../Libraries/STM32F4xx_StdPeriph_Driver/src/stm32f4xx_spi.c ****   *             In I2S mode, program the Mode, Standard, Data Format, MCLK Output, Audio 
  47:../Libraries/STM32F4xx_StdPeriph_Driver/src/stm32f4xx_spi.c ****   *             frequency and Polarity using I2S_Init() function.
  48:../Libraries/STM32F4xx_StdPeriph_Driver/src/stm32f4xx_spi.c ****   *             For I2S mode, make sure that either:
  49:../Libraries/STM32F4xx_StdPeriph_Driver/src/stm32f4xx_spi.c ****   *              - I2S PLL is configured using the functions RCC_I2SCLKConfig(RCC_I2S2CLKSource_PLL
  50:../Libraries/STM32F4xx_StdPeriph_Driver/src/stm32f4xx_spi.c ****   *                RCC_PLLI2SCmd(ENABLE) and RCC_GetFlagStatus(RCC_FLAG_PLLI2SRDY).
  51:../Libraries/STM32F4xx_StdPeriph_Driver/src/stm32f4xx_spi.c ****   *              or 
  52:../Libraries/STM32F4xx_StdPeriph_Driver/src/stm32f4xx_spi.c ****   *              - External clock source is configured using the function 
  53:../Libraries/STM32F4xx_StdPeriph_Driver/src/stm32f4xx_spi.c ****   *                RCC_I2SCLKConfig(RCC_I2S2CLKSource_Ext) and after setting correctly the define c
  54:../Libraries/STM32F4xx_StdPeriph_Driver/src/stm32f4xx_spi.c ****   *                I2S_EXTERNAL_CLOCK_VAL in the stm32f4xx_conf.h file. 
  55:../Libraries/STM32F4xx_StdPeriph_Driver/src/stm32f4xx_spi.c ****   *
  56:../Libraries/STM32F4xx_StdPeriph_Driver/src/stm32f4xx_spi.c ****   *          5. Enable the NVIC and the corresponding interrupt using the function 
  57:../Libraries/STM32F4xx_StdPeriph_Driver/src/stm32f4xx_spi.c ****   *             SPI_ITConfig() if you need to use interrupt mode. 
  58:../Libraries/STM32F4xx_StdPeriph_Driver/src/stm32f4xx_spi.c ****   *
  59:../Libraries/STM32F4xx_StdPeriph_Driver/src/stm32f4xx_spi.c ****   *          6. When using the DMA mode 
  60:../Libraries/STM32F4xx_StdPeriph_Driver/src/stm32f4xx_spi.c ****   *                   - Configure the DMA using DMA_Init() function
  61:../Libraries/STM32F4xx_StdPeriph_Driver/src/stm32f4xx_spi.c ****   *                   - Active the needed channel Request using SPI_I2S_DMACmd() function
  62:../Libraries/STM32F4xx_StdPeriph_Driver/src/stm32f4xx_spi.c ****   * 
  63:../Libraries/STM32F4xx_StdPeriph_Driver/src/stm32f4xx_spi.c ****   *          7. Enable the SPI using the SPI_Cmd() function or enable the I2S using
  64:../Libraries/STM32F4xx_StdPeriph_Driver/src/stm32f4xx_spi.c ****   *             I2S_Cmd().
  65:../Libraries/STM32F4xx_StdPeriph_Driver/src/stm32f4xx_spi.c ****   * 
  66:../Libraries/STM32F4xx_StdPeriph_Driver/src/stm32f4xx_spi.c ****   *          8. Enable the DMA using the DMA_Cmd() function when using DMA mode. 
  67:../Libraries/STM32F4xx_StdPeriph_Driver/src/stm32f4xx_spi.c ****   *
  68:../Libraries/STM32F4xx_StdPeriph_Driver/src/stm32f4xx_spi.c ****   *          9. Optionally, you can enable/configure the following parameters without
  69:../Libraries/STM32F4xx_StdPeriph_Driver/src/stm32f4xx_spi.c ****   *             re-initialization (i.e there is no need to call again SPI_Init() function):
  70:../Libraries/STM32F4xx_StdPeriph_Driver/src/stm32f4xx_spi.c ****   *              - When bidirectional mode (SPI_Direction_1Line_Rx or SPI_Direction_1Line_Tx)
  71:../Libraries/STM32F4xx_StdPeriph_Driver/src/stm32f4xx_spi.c ****   *                is programmed as Data direction parameter using the SPI_Init() function
  72:../Libraries/STM32F4xx_StdPeriph_Driver/src/stm32f4xx_spi.c ****   *                it can be possible to switch between SPI_Direction_Tx or SPI_Direction_Rx
  73:../Libraries/STM32F4xx_StdPeriph_Driver/src/stm32f4xx_spi.c ****   *                using the SPI_BiDirectionalLineConfig() function.
  74:../Libraries/STM32F4xx_StdPeriph_Driver/src/stm32f4xx_spi.c ****   *              - When SPI_NSS_Soft is selected as Slave Select Management parameter 
  75:../Libraries/STM32F4xx_StdPeriph_Driver/src/stm32f4xx_spi.c ****   *                using the SPI_Init() function it can be possible to manage the 
  76:../Libraries/STM32F4xx_StdPeriph_Driver/src/stm32f4xx_spi.c ****   *                NSS internal signal using the SPI_NSSInternalSoftwareConfig() function.
  77:../Libraries/STM32F4xx_StdPeriph_Driver/src/stm32f4xx_spi.c ****   *              - Reconfigure the data size using the SPI_DataSizeConfig() function  
  78:../Libraries/STM32F4xx_StdPeriph_Driver/src/stm32f4xx_spi.c ****   *              - Enable or disable the SS output using the SPI_SSOutputCmd() function  
  79:../Libraries/STM32F4xx_StdPeriph_Driver/src/stm32f4xx_spi.c ****   *          
  80:../Libraries/STM32F4xx_StdPeriph_Driver/src/stm32f4xx_spi.c ****   *          10. To use the CRC Hardware calculation feature refer to the Peripheral 
  81:../Libraries/STM32F4xx_StdPeriph_Driver/src/stm32f4xx_spi.c ****   *              CRC hardware Calculation subsection.
  82:../Libraries/STM32F4xx_StdPeriph_Driver/src/stm32f4xx_spi.c ****   *   
  83:../Libraries/STM32F4xx_StdPeriph_Driver/src/stm32f4xx_spi.c ****   *
  84:../Libraries/STM32F4xx_StdPeriph_Driver/src/stm32f4xx_spi.c ****   *          It is possible to use SPI in I2S full duplex mode, in this case, each SPI 
  85:../Libraries/STM32F4xx_StdPeriph_Driver/src/stm32f4xx_spi.c ****   *          peripheral is able to manage sending and receiving data simultaneously
  86:../Libraries/STM32F4xx_StdPeriph_Driver/src/stm32f4xx_spi.c ****   *          using two data lines. Each SPI peripheral has an extended block called I2Sxext
  87:../Libraries/STM32F4xx_StdPeriph_Driver/src/stm32f4xx_spi.c ****   *          (ie. I2S2ext for SPI2 and I2S3ext for SPI3).
  88:../Libraries/STM32F4xx_StdPeriph_Driver/src/stm32f4xx_spi.c ****   *          The extension block is not a full SPI IP, it is used only as I2S slave to
  89:../Libraries/STM32F4xx_StdPeriph_Driver/src/stm32f4xx_spi.c ****   *          implement full duplex mode. The extension block uses the same clock sources
  90:../Libraries/STM32F4xx_StdPeriph_Driver/src/stm32f4xx_spi.c ****   *          as its master.          
  91:../Libraries/STM32F4xx_StdPeriph_Driver/src/stm32f4xx_spi.c ****   *          To configure I2S full duplex you have to:
  92:../Libraries/STM32F4xx_StdPeriph_Driver/src/stm32f4xx_spi.c ****   *            
  93:../Libraries/STM32F4xx_StdPeriph_Driver/src/stm32f4xx_spi.c ****   *          1. Configure SPIx in I2S mode (I2S_Init() function) as described above. 
  94:../Libraries/STM32F4xx_StdPeriph_Driver/src/stm32f4xx_spi.c ****   *           
  95:../Libraries/STM32F4xx_StdPeriph_Driver/src/stm32f4xx_spi.c ****   *          2. Call the I2S_FullDuplexConfig() function using the same strucutre passed to  
  96:../Libraries/STM32F4xx_StdPeriph_Driver/src/stm32f4xx_spi.c ****   *             I2S_Init() function.
  97:../Libraries/STM32F4xx_StdPeriph_Driver/src/stm32f4xx_spi.c ****   *            
  98:../Libraries/STM32F4xx_StdPeriph_Driver/src/stm32f4xx_spi.c ****   *          3. Call I2S_Cmd() for SPIx then for its extended block.
  99:../Libraries/STM32F4xx_StdPeriph_Driver/src/stm32f4xx_spi.c ****   *          
 100:../Libraries/STM32F4xx_StdPeriph_Driver/src/stm32f4xx_spi.c ****   *          4. To configure interrupts or DMA requests and to get/clear flag status, 
 101:../Libraries/STM32F4xx_StdPeriph_Driver/src/stm32f4xx_spi.c ****   *             use I2Sxext instance for the extension block.
 102:../Libraries/STM32F4xx_StdPeriph_Driver/src/stm32f4xx_spi.c ****   *             
 103:../Libraries/STM32F4xx_StdPeriph_Driver/src/stm32f4xx_spi.c ****   *          Functions that can be called with I2Sxext instances are:
 104:../Libraries/STM32F4xx_StdPeriph_Driver/src/stm32f4xx_spi.c ****   *          I2S_Cmd(), I2S_FullDuplexConfig(), SPI_I2S_ReceiveData(), SPI_I2S_SendData(), 
 105:../Libraries/STM32F4xx_StdPeriph_Driver/src/stm32f4xx_spi.c ****   *          SPI_I2S_DMACmd(), SPI_I2S_ITConfig(), SPI_I2S_GetFlagStatus(), SPI_I2S_ClearFlag(),
 106:../Libraries/STM32F4xx_StdPeriph_Driver/src/stm32f4xx_spi.c ****   *          SPI_I2S_GetITStatus() and SPI_I2S_ClearITPendingBit().
 107:../Libraries/STM32F4xx_StdPeriph_Driver/src/stm32f4xx_spi.c ****   *                 
 108:../Libraries/STM32F4xx_StdPeriph_Driver/src/stm32f4xx_spi.c ****   *          Example: To use SPI3 in Full duplex mode (SPI3 is Master Tx, I2S3ext is Slave Rx):
 109:../Libraries/STM32F4xx_StdPeriph_Driver/src/stm32f4xx_spi.c ****   *            
 110:../Libraries/STM32F4xx_StdPeriph_Driver/src/stm32f4xx_spi.c ****   *          RCC_APB1PeriphClockCmd(RCC_APB1Periph_SPI3, ENABLE);   
 111:../Libraries/STM32F4xx_StdPeriph_Driver/src/stm32f4xx_spi.c ****   *          I2S_StructInit(&I2SInitStruct);
 112:../Libraries/STM32F4xx_StdPeriph_Driver/src/stm32f4xx_spi.c ****   *          I2SInitStruct.Mode = I2S_Mode_MasterTx;     
 113:../Libraries/STM32F4xx_StdPeriph_Driver/src/stm32f4xx_spi.c ****   *          I2S_Init(SPI3, &I2SInitStruct);
 114:../Libraries/STM32F4xx_StdPeriph_Driver/src/stm32f4xx_spi.c ****   *          I2S_FullDuplexConfig(SPI3ext, &I2SInitStruct)
 115:../Libraries/STM32F4xx_StdPeriph_Driver/src/stm32f4xx_spi.c ****   *          I2S_Cmd(SPI3, ENABLE);
 116:../Libraries/STM32F4xx_StdPeriph_Driver/src/stm32f4xx_spi.c ****   *          I2S_Cmd(SPI3ext, ENABLE);
 117:../Libraries/STM32F4xx_StdPeriph_Driver/src/stm32f4xx_spi.c ****   *          ...
 118:../Libraries/STM32F4xx_StdPeriph_Driver/src/stm32f4xx_spi.c ****   *          while (SPI_I2S_GetFlagStatus(SPI2, SPI_FLAG_TXE) == RESET)
 119:../Libraries/STM32F4xx_StdPeriph_Driver/src/stm32f4xx_spi.c ****   *          {}
 120:../Libraries/STM32F4xx_StdPeriph_Driver/src/stm32f4xx_spi.c ****   *          SPI_I2S_SendData(SPI3, txdata[i]);
 121:../Libraries/STM32F4xx_StdPeriph_Driver/src/stm32f4xx_spi.c ****   *          ...  
 122:../Libraries/STM32F4xx_StdPeriph_Driver/src/stm32f4xx_spi.c ****   *          while (SPI_I2S_GetFlagStatus(I2S3ext, SPI_FLAG_RXNE) == RESET)
 123:../Libraries/STM32F4xx_StdPeriph_Driver/src/stm32f4xx_spi.c ****   *          {}
 124:../Libraries/STM32F4xx_StdPeriph_Driver/src/stm32f4xx_spi.c ****   *          rxdata[i] = SPI_I2S_ReceiveData(I2S3ext);
 125:../Libraries/STM32F4xx_StdPeriph_Driver/src/stm32f4xx_spi.c ****   *          ...          
 126:../Libraries/STM32F4xx_StdPeriph_Driver/src/stm32f4xx_spi.c ****   *              
 127:../Libraries/STM32F4xx_StdPeriph_Driver/src/stm32f4xx_spi.c ****   *     
 128:../Libraries/STM32F4xx_StdPeriph_Driver/src/stm32f4xx_spi.c ****   * @note    In I2S mode: if an external clock is used as source clock for the I2S,  
 129:../Libraries/STM32F4xx_StdPeriph_Driver/src/stm32f4xx_spi.c ****   *          then the define I2S_EXTERNAL_CLOCK_VAL in file stm32f4xx_conf.h should 
 130:../Libraries/STM32F4xx_StdPeriph_Driver/src/stm32f4xx_spi.c ****   *          be enabled and set to the value of the source clock frequency (in Hz).
 131:../Libraries/STM32F4xx_StdPeriph_Driver/src/stm32f4xx_spi.c ****   * 
 132:../Libraries/STM32F4xx_StdPeriph_Driver/src/stm32f4xx_spi.c ****   * @note    In SPI mode: To use the SPI TI mode, call the function SPI_TIModeCmd() 
 133:../Libraries/STM32F4xx_StdPeriph_Driver/src/stm32f4xx_spi.c ****   *          just after calling the function SPI_Init().
 134:../Libraries/STM32F4xx_StdPeriph_Driver/src/stm32f4xx_spi.c ****   *
 135:../Libraries/STM32F4xx_StdPeriph_Driver/src/stm32f4xx_spi.c ****   *  @endverbatim  
 136:../Libraries/STM32F4xx_StdPeriph_Driver/src/stm32f4xx_spi.c ****   *                                  
 137:../Libraries/STM32F4xx_StdPeriph_Driver/src/stm32f4xx_spi.c ****   ******************************************************************************
 138:../Libraries/STM32F4xx_StdPeriph_Driver/src/stm32f4xx_spi.c ****   * @attention
 139:../Libraries/STM32F4xx_StdPeriph_Driver/src/stm32f4xx_spi.c ****   *
 140:../Libraries/STM32F4xx_StdPeriph_Driver/src/stm32f4xx_spi.c ****   * THE PRESENT FIRMWARE WHICH IS FOR GUIDANCE ONLY AIMS AT PROVIDING CUSTOMERS
 141:../Libraries/STM32F4xx_StdPeriph_Driver/src/stm32f4xx_spi.c ****   * WITH CODING INFORMATION REGARDING THEIR PRODUCTS IN ORDER FOR THEM TO SAVE
 142:../Libraries/STM32F4xx_StdPeriph_Driver/src/stm32f4xx_spi.c ****   * TIME. AS A RESULT, STMICROELECTRONICS SHALL NOT BE HELD LIABLE FOR ANY
 143:../Libraries/STM32F4xx_StdPeriph_Driver/src/stm32f4xx_spi.c ****   * DIRECT, INDIRECT OR CONSEQUENTIAL DAMAGES WITH RESPECT TO ANY CLAIMS ARISING
 144:../Libraries/STM32F4xx_StdPeriph_Driver/src/stm32f4xx_spi.c ****   * FROM THE CONTENT OF SUCH FIRMWARE AND/OR THE USE MADE BY CUSTOMERS OF THE
 145:../Libraries/STM32F4xx_StdPeriph_Driver/src/stm32f4xx_spi.c ****   * CODING INFORMATION CONTAINED HEREIN IN CONNECTION WITH THEIR PRODUCTS.
 146:../Libraries/STM32F4xx_StdPeriph_Driver/src/stm32f4xx_spi.c ****   *
 147:../Libraries/STM32F4xx_StdPeriph_Driver/src/stm32f4xx_spi.c ****   * <h2><center>&copy; COPYRIGHT 2011 STMicroelectronics</center></h2>
 148:../Libraries/STM32F4xx_StdPeriph_Driver/src/stm32f4xx_spi.c ****   ******************************************************************************  
 149:../Libraries/STM32F4xx_StdPeriph_Driver/src/stm32f4xx_spi.c ****   */ 
 150:../Libraries/STM32F4xx_StdPeriph_Driver/src/stm32f4xx_spi.c **** 
 151:../Libraries/STM32F4xx_StdPeriph_Driver/src/stm32f4xx_spi.c **** /* Includes ------------------------------------------------------------------*/
 152:../Libraries/STM32F4xx_StdPeriph_Driver/src/stm32f4xx_spi.c **** #include "stm32f4xx_spi.h"
 153:../Libraries/STM32F4xx_StdPeriph_Driver/src/stm32f4xx_spi.c **** #include "stm32f4xx_rcc.h"
 154:../Libraries/STM32F4xx_StdPeriph_Driver/src/stm32f4xx_spi.c **** 
 155:../Libraries/STM32F4xx_StdPeriph_Driver/src/stm32f4xx_spi.c **** /** @addtogroup STM32F4xx_StdPeriph_Driver
 156:../Libraries/STM32F4xx_StdPeriph_Driver/src/stm32f4xx_spi.c ****   * @{
 157:../Libraries/STM32F4xx_StdPeriph_Driver/src/stm32f4xx_spi.c ****   */
 158:../Libraries/STM32F4xx_StdPeriph_Driver/src/stm32f4xx_spi.c **** 
 159:../Libraries/STM32F4xx_StdPeriph_Driver/src/stm32f4xx_spi.c **** /** @defgroup SPI 
 160:../Libraries/STM32F4xx_StdPeriph_Driver/src/stm32f4xx_spi.c ****   * @brief SPI driver modules
 161:../Libraries/STM32F4xx_StdPeriph_Driver/src/stm32f4xx_spi.c ****   * @{
 162:../Libraries/STM32F4xx_StdPeriph_Driver/src/stm32f4xx_spi.c ****   */ 
 163:../Libraries/STM32F4xx_StdPeriph_Driver/src/stm32f4xx_spi.c **** 
 164:../Libraries/STM32F4xx_StdPeriph_Driver/src/stm32f4xx_spi.c **** /* Private typedef -----------------------------------------------------------*/
 165:../Libraries/STM32F4xx_StdPeriph_Driver/src/stm32f4xx_spi.c **** /* Private define ------------------------------------------------------------*/
 166:../Libraries/STM32F4xx_StdPeriph_Driver/src/stm32f4xx_spi.c **** 
 167:../Libraries/STM32F4xx_StdPeriph_Driver/src/stm32f4xx_spi.c **** /* SPI registers Masks */
 168:../Libraries/STM32F4xx_StdPeriph_Driver/src/stm32f4xx_spi.c **** #define CR1_CLEAR_MASK            ((uint16_t)0x3040)
 169:../Libraries/STM32F4xx_StdPeriph_Driver/src/stm32f4xx_spi.c **** #define I2SCFGR_CLEAR_MASK        ((uint16_t)0xF040)
 170:../Libraries/STM32F4xx_StdPeriph_Driver/src/stm32f4xx_spi.c **** 
 171:../Libraries/STM32F4xx_StdPeriph_Driver/src/stm32f4xx_spi.c **** /* RCC PLLs masks */
 172:../Libraries/STM32F4xx_StdPeriph_Driver/src/stm32f4xx_spi.c **** #define PLLCFGR_PPLR_MASK         ((uint32_t)0x70000000)
 173:../Libraries/STM32F4xx_StdPeriph_Driver/src/stm32f4xx_spi.c **** #define PLLCFGR_PPLN_MASK         ((uint32_t)0x00007FC0)
 174:../Libraries/STM32F4xx_StdPeriph_Driver/src/stm32f4xx_spi.c **** 
 175:../Libraries/STM32F4xx_StdPeriph_Driver/src/stm32f4xx_spi.c **** #define SPI_CR2_FRF               ((uint16_t)0x0010)
 176:../Libraries/STM32F4xx_StdPeriph_Driver/src/stm32f4xx_spi.c **** #define SPI_SR_TIFRFE             ((uint16_t)0x0100)
 177:../Libraries/STM32F4xx_StdPeriph_Driver/src/stm32f4xx_spi.c **** 
 178:../Libraries/STM32F4xx_StdPeriph_Driver/src/stm32f4xx_spi.c **** /* Private macro -------------------------------------------------------------*/
 179:../Libraries/STM32F4xx_StdPeriph_Driver/src/stm32f4xx_spi.c **** /* Private variables ---------------------------------------------------------*/
 180:../Libraries/STM32F4xx_StdPeriph_Driver/src/stm32f4xx_spi.c **** /* Private function prototypes -----------------------------------------------*/
 181:../Libraries/STM32F4xx_StdPeriph_Driver/src/stm32f4xx_spi.c **** /* Private functions ---------------------------------------------------------*/
 182:../Libraries/STM32F4xx_StdPeriph_Driver/src/stm32f4xx_spi.c **** 
 183:../Libraries/STM32F4xx_StdPeriph_Driver/src/stm32f4xx_spi.c **** /** @defgroup SPI_Private_Functions
 184:../Libraries/STM32F4xx_StdPeriph_Driver/src/stm32f4xx_spi.c ****   * @{
 185:../Libraries/STM32F4xx_StdPeriph_Driver/src/stm32f4xx_spi.c ****   */
 186:../Libraries/STM32F4xx_StdPeriph_Driver/src/stm32f4xx_spi.c **** 
 187:../Libraries/STM32F4xx_StdPeriph_Driver/src/stm32f4xx_spi.c **** /** @defgroup SPI_Group1 Initialization and Configuration functions
 188:../Libraries/STM32F4xx_StdPeriph_Driver/src/stm32f4xx_spi.c ****  *  @brief   Initialization and Configuration functions 
 189:../Libraries/STM32F4xx_StdPeriph_Driver/src/stm32f4xx_spi.c ****  *
 190:../Libraries/STM32F4xx_StdPeriph_Driver/src/stm32f4xx_spi.c **** @verbatim   
 191:../Libraries/STM32F4xx_StdPeriph_Driver/src/stm32f4xx_spi.c ****  ===============================================================================
 192:../Libraries/STM32F4xx_StdPeriph_Driver/src/stm32f4xx_spi.c ****                   Initialization and Configuration functions
 193:../Libraries/STM32F4xx_StdPeriph_Driver/src/stm32f4xx_spi.c ****  ===============================================================================  
 194:../Libraries/STM32F4xx_StdPeriph_Driver/src/stm32f4xx_spi.c **** 
 195:../Libraries/STM32F4xx_StdPeriph_Driver/src/stm32f4xx_spi.c ****   This section provides a set of functions allowing to initialize the SPI Direction,
 196:../Libraries/STM32F4xx_StdPeriph_Driver/src/stm32f4xx_spi.c ****   SPI Mode, SPI Data Size, SPI Polarity, SPI Phase, SPI NSS Management, SPI Baud
 197:../Libraries/STM32F4xx_StdPeriph_Driver/src/stm32f4xx_spi.c ****   Rate Prescaler, SPI First Bit and SPI CRC Polynomial.
 198:../Libraries/STM32F4xx_StdPeriph_Driver/src/stm32f4xx_spi.c ****   
 199:../Libraries/STM32F4xx_StdPeriph_Driver/src/stm32f4xx_spi.c ****   The SPI_Init() function follows the SPI configuration procedures for Master mode
 200:../Libraries/STM32F4xx_StdPeriph_Driver/src/stm32f4xx_spi.c ****   and Slave mode (details for these procedures are available in reference manual
 201:../Libraries/STM32F4xx_StdPeriph_Driver/src/stm32f4xx_spi.c ****   (RM0090)).
 202:../Libraries/STM32F4xx_StdPeriph_Driver/src/stm32f4xx_spi.c ****   
 203:../Libraries/STM32F4xx_StdPeriph_Driver/src/stm32f4xx_spi.c **** @endverbatim
 204:../Libraries/STM32F4xx_StdPeriph_Driver/src/stm32f4xx_spi.c ****   * @{
 205:../Libraries/STM32F4xx_StdPeriph_Driver/src/stm32f4xx_spi.c ****   */
 206:../Libraries/STM32F4xx_StdPeriph_Driver/src/stm32f4xx_spi.c **** 
 207:../Libraries/STM32F4xx_StdPeriph_Driver/src/stm32f4xx_spi.c **** /**
 208:../Libraries/STM32F4xx_StdPeriph_Driver/src/stm32f4xx_spi.c ****   * @brief  Deinitialize the SPIx peripheral registers to their default reset values.
 209:../Libraries/STM32F4xx_StdPeriph_Driver/src/stm32f4xx_spi.c ****   * @param  SPIx: To select the SPIx/I2Sx peripheral, where x can be: 1, 2 or 3 
 210:../Libraries/STM32F4xx_StdPeriph_Driver/src/stm32f4xx_spi.c ****   *         in SPI mode or 2 or 3 in I2S mode.   
 211:../Libraries/STM32F4xx_StdPeriph_Driver/src/stm32f4xx_spi.c ****   *         
 212:../Libraries/STM32F4xx_StdPeriph_Driver/src/stm32f4xx_spi.c ****   * @note   The extended I2S blocks (ie. I2S2ext and I2S3ext blocks) are deinitialized
 213:../Libraries/STM32F4xx_StdPeriph_Driver/src/stm32f4xx_spi.c ****   *         when the relative I2S peripheral is deinitialized (the extended block's clock
 214:../Libraries/STM32F4xx_StdPeriph_Driver/src/stm32f4xx_spi.c ****   *         is managed by the I2S peripheral clock).
 215:../Libraries/STM32F4xx_StdPeriph_Driver/src/stm32f4xx_spi.c ****   *             
 216:../Libraries/STM32F4xx_StdPeriph_Driver/src/stm32f4xx_spi.c ****   * @retval None
 217:../Libraries/STM32F4xx_StdPeriph_Driver/src/stm32f4xx_spi.c ****   */
 218:../Libraries/STM32F4xx_StdPeriph_Driver/src/stm32f4xx_spi.c **** void SPI_I2S_DeInit(SPI_TypeDef* SPIx)
 219:../Libraries/STM32F4xx_StdPeriph_Driver/src/stm32f4xx_spi.c **** {
  27              		.loc 1 219 0
  28              		.cfi_startproc
  29              		@ args = 0, pretend = 0, frame = 8
  30              		@ frame_needed = 1, uses_anonymous_args = 0
  31 0000 80B5     		push	{r7, lr}
  32              	.LCFI0:
  33              		.cfi_def_cfa_offset 8
  34              		.cfi_offset 14, -4
  35              		.cfi_offset 7, -8
  36 0002 82B0     		sub	sp, sp, #8
  37              	.LCFI1:
  38              		.cfi_def_cfa_offset 16
  39 0004 00AF     		add	r7, sp, #0
  40              	.LCFI2:
  41              		.cfi_def_cfa_register 7
  42 0006 7860     		str	r0, [r7, #4]
 220:../Libraries/STM32F4xx_StdPeriph_Driver/src/stm32f4xx_spi.c ****   /* Check the parameters */
 221:../Libraries/STM32F4xx_StdPeriph_Driver/src/stm32f4xx_spi.c ****   assert_param(IS_SPI_ALL_PERIPH(SPIx));
 222:../Libraries/STM32F4xx_StdPeriph_Driver/src/stm32f4xx_spi.c **** 
 223:../Libraries/STM32F4xx_StdPeriph_Driver/src/stm32f4xx_spi.c ****   if (SPIx == SPI1)
  43              		.loc 1 223 0
  44 0008 7A68     		ldr	r2, [r7, #4]
  45 000a 4FF44053 		mov	r3, #12288
  46 000e C4F20103 		movt	r3, 16385
  47 0012 9A42     		cmp	r2, r3
  48 0014 0CD1     		bne	.L2
 224:../Libraries/STM32F4xx_StdPeriph_Driver/src/stm32f4xx_spi.c ****   {
 225:../Libraries/STM32F4xx_StdPeriph_Driver/src/stm32f4xx_spi.c ****     /* Enable SPI1 reset state */
 226:../Libraries/STM32F4xx_StdPeriph_Driver/src/stm32f4xx_spi.c ****     RCC_APB2PeriphResetCmd(RCC_APB2Periph_SPI1, ENABLE);
  49              		.loc 1 226 0
  50 0016 4FF48050 		mov	r0, #4096
  51 001a 4FF00101 		mov	r1, #1
  52 001e FFF7FEFF 		bl	RCC_APB2PeriphResetCmd
 227:../Libraries/STM32F4xx_StdPeriph_Driver/src/stm32f4xx_spi.c ****     /* Release SPI1 from reset state */
 228:../Libraries/STM32F4xx_StdPeriph_Driver/src/stm32f4xx_spi.c ****     RCC_APB2PeriphResetCmd(RCC_APB2Periph_SPI1, DISABLE);
  53              		.loc 1 228 0
  54 0022 4FF48050 		mov	r0, #4096
  55 0026 4FF00001 		mov	r1, #0
  56 002a FFF7FEFF 		bl	RCC_APB2PeriphResetCmd
  57 002e 26E0     		b	.L1
  58              	.L2:
 229:../Libraries/STM32F4xx_StdPeriph_Driver/src/stm32f4xx_spi.c ****   }
 230:../Libraries/STM32F4xx_StdPeriph_Driver/src/stm32f4xx_spi.c ****   else if (SPIx == SPI2)
  59              		.loc 1 230 0
  60 0030 7A68     		ldr	r2, [r7, #4]
  61 0032 4FF46053 		mov	r3, #14336
  62 0036 C4F20003 		movt	r3, 16384
  63 003a 9A42     		cmp	r2, r3
  64 003c 0CD1     		bne	.L4
 231:../Libraries/STM32F4xx_StdPeriph_Driver/src/stm32f4xx_spi.c ****   {
 232:../Libraries/STM32F4xx_StdPeriph_Driver/src/stm32f4xx_spi.c ****     /* Enable SPI2 reset state */
 233:../Libraries/STM32F4xx_StdPeriph_Driver/src/stm32f4xx_spi.c ****     RCC_APB1PeriphResetCmd(RCC_APB1Periph_SPI2, ENABLE);
  65              		.loc 1 233 0
  66 003e 4FF48040 		mov	r0, #16384
  67 0042 4FF00101 		mov	r1, #1
  68 0046 FFF7FEFF 		bl	RCC_APB1PeriphResetCmd
 234:../Libraries/STM32F4xx_StdPeriph_Driver/src/stm32f4xx_spi.c ****     /* Release SPI2 from reset state */
 235:../Libraries/STM32F4xx_StdPeriph_Driver/src/stm32f4xx_spi.c ****     RCC_APB1PeriphResetCmd(RCC_APB1Periph_SPI2, DISABLE);
  69              		.loc 1 235 0
  70 004a 4FF48040 		mov	r0, #16384
  71 004e 4FF00001 		mov	r1, #0
  72 0052 FFF7FEFF 		bl	RCC_APB1PeriphResetCmd
  73 0056 12E0     		b	.L1
  74              	.L4:
 236:../Libraries/STM32F4xx_StdPeriph_Driver/src/stm32f4xx_spi.c ****     }
 237:../Libraries/STM32F4xx_StdPeriph_Driver/src/stm32f4xx_spi.c ****   else
 238:../Libraries/STM32F4xx_StdPeriph_Driver/src/stm32f4xx_spi.c ****   {
 239:../Libraries/STM32F4xx_StdPeriph_Driver/src/stm32f4xx_spi.c ****     if (SPIx == SPI3)
  75              		.loc 1 239 0
  76 0058 7A68     		ldr	r2, [r7, #4]
  77 005a 4FF47053 		mov	r3, #15360
  78 005e C4F20003 		movt	r3, 16384
  79 0062 9A42     		cmp	r2, r3
  80 0064 0BD1     		bne	.L1
 240:../Libraries/STM32F4xx_StdPeriph_Driver/src/stm32f4xx_spi.c ****     {
 241:../Libraries/STM32F4xx_StdPeriph_Driver/src/stm32f4xx_spi.c ****       /* Enable SPI3 reset state */
 242:../Libraries/STM32F4xx_StdPeriph_Driver/src/stm32f4xx_spi.c ****       RCC_APB1PeriphResetCmd(RCC_APB1Periph_SPI3, ENABLE);
  81              		.loc 1 242 0
  82 0066 4FF40040 		mov	r0, #32768
  83 006a 4FF00101 		mov	r1, #1
  84 006e FFF7FEFF 		bl	RCC_APB1PeriphResetCmd
 243:../Libraries/STM32F4xx_StdPeriph_Driver/src/stm32f4xx_spi.c ****       /* Release SPI3 from reset state */
 244:../Libraries/STM32F4xx_StdPeriph_Driver/src/stm32f4xx_spi.c ****       RCC_APB1PeriphResetCmd(RCC_APB1Periph_SPI3, DISABLE);
  85              		.loc 1 244 0
  86 0072 4FF40040 		mov	r0, #32768
  87 0076 4FF00001 		mov	r1, #0
  88 007a FFF7FEFF 		bl	RCC_APB1PeriphResetCmd
  89              	.L1:
 245:../Libraries/STM32F4xx_StdPeriph_Driver/src/stm32f4xx_spi.c ****     }
 246:../Libraries/STM32F4xx_StdPeriph_Driver/src/stm32f4xx_spi.c ****   }
 247:../Libraries/STM32F4xx_StdPeriph_Driver/src/stm32f4xx_spi.c **** }
  90              		.loc 1 247 0
  91 007e 07F10807 		add	r7, r7, #8
  92 0082 BD46     		mov	sp, r7
  93 0084 80BD     		pop	{r7, pc}
  94              		.cfi_endproc
  95              	.LFE110:
  97 0086 00BF     		.section	.text.SPI_Init,"ax",%progbits
  98              		.align	2
  99              		.global	SPI_Init
 100              		.thumb
 101              		.thumb_func
 103              	SPI_Init:
 104              	.LFB111:
 248:../Libraries/STM32F4xx_StdPeriph_Driver/src/stm32f4xx_spi.c **** 
 249:../Libraries/STM32F4xx_StdPeriph_Driver/src/stm32f4xx_spi.c **** /**
 250:../Libraries/STM32F4xx_StdPeriph_Driver/src/stm32f4xx_spi.c ****   * @brief  Initializes the SPIx peripheral according to the specified 
 251:../Libraries/STM32F4xx_StdPeriph_Driver/src/stm32f4xx_spi.c ****   *         parameters in the SPI_InitStruct.
 252:../Libraries/STM32F4xx_StdPeriph_Driver/src/stm32f4xx_spi.c ****   * @param  SPIx: where x can be 1, 2 or 3 to select the SPI peripheral.
 253:../Libraries/STM32F4xx_StdPeriph_Driver/src/stm32f4xx_spi.c ****   * @param  SPI_InitStruct: pointer to a SPI_InitTypeDef structure that
 254:../Libraries/STM32F4xx_StdPeriph_Driver/src/stm32f4xx_spi.c ****   *         contains the configuration information for the specified SPI peripheral.
 255:../Libraries/STM32F4xx_StdPeriph_Driver/src/stm32f4xx_spi.c ****   * @retval None
 256:../Libraries/STM32F4xx_StdPeriph_Driver/src/stm32f4xx_spi.c ****   */
 257:../Libraries/STM32F4xx_StdPeriph_Driver/src/stm32f4xx_spi.c **** void SPI_Init(SPI_TypeDef* SPIx, SPI_InitTypeDef* SPI_InitStruct)
 258:../Libraries/STM32F4xx_StdPeriph_Driver/src/stm32f4xx_spi.c **** {
 105              		.loc 1 258 0
 106              		.cfi_startproc
 107              		@ args = 0, pretend = 0, frame = 16
 108              		@ frame_needed = 1, uses_anonymous_args = 0
 109              		@ link register save eliminated.
 110 0000 80B4     		push	{r7}
 111              	.LCFI3:
 112              		.cfi_def_cfa_offset 4
 113              		.cfi_offset 7, -4
 114 0002 85B0     		sub	sp, sp, #20
 115              	.LCFI4:
 116              		.cfi_def_cfa_offset 24
 117 0004 00AF     		add	r7, sp, #0
 118              	.LCFI5:
 119              		.cfi_def_cfa_register 7
 120 0006 7860     		str	r0, [r7, #4]
 121 0008 3960     		str	r1, [r7, #0]
 259:../Libraries/STM32F4xx_StdPeriph_Driver/src/stm32f4xx_spi.c ****   uint16_t tmpreg = 0;
 122              		.loc 1 259 0
 123 000a 4FF00003 		mov	r3, #0
 124 000e FB81     		strh	r3, [r7, #14]	@ movhi
 260:../Libraries/STM32F4xx_StdPeriph_Driver/src/stm32f4xx_spi.c ****   
 261:../Libraries/STM32F4xx_StdPeriph_Driver/src/stm32f4xx_spi.c ****   /* check the parameters */
 262:../Libraries/STM32F4xx_StdPeriph_Driver/src/stm32f4xx_spi.c ****   assert_param(IS_SPI_ALL_PERIPH(SPIx));
 263:../Libraries/STM32F4xx_StdPeriph_Driver/src/stm32f4xx_spi.c ****   
 264:../Libraries/STM32F4xx_StdPeriph_Driver/src/stm32f4xx_spi.c ****   /* Check the SPI parameters */
 265:../Libraries/STM32F4xx_StdPeriph_Driver/src/stm32f4xx_spi.c ****   assert_param(IS_SPI_DIRECTION_MODE(SPI_InitStruct->SPI_Direction));
 266:../Libraries/STM32F4xx_StdPeriph_Driver/src/stm32f4xx_spi.c ****   assert_param(IS_SPI_MODE(SPI_InitStruct->SPI_Mode));
 267:../Libraries/STM32F4xx_StdPeriph_Driver/src/stm32f4xx_spi.c ****   assert_param(IS_SPI_DATASIZE(SPI_InitStruct->SPI_DataSize));
 268:../Libraries/STM32F4xx_StdPeriph_Driver/src/stm32f4xx_spi.c ****   assert_param(IS_SPI_CPOL(SPI_InitStruct->SPI_CPOL));
 269:../Libraries/STM32F4xx_StdPeriph_Driver/src/stm32f4xx_spi.c ****   assert_param(IS_SPI_CPHA(SPI_InitStruct->SPI_CPHA));
 270:../Libraries/STM32F4xx_StdPeriph_Driver/src/stm32f4xx_spi.c ****   assert_param(IS_SPI_NSS(SPI_InitStruct->SPI_NSS));
 271:../Libraries/STM32F4xx_StdPeriph_Driver/src/stm32f4xx_spi.c ****   assert_param(IS_SPI_BAUDRATE_PRESCALER(SPI_InitStruct->SPI_BaudRatePrescaler));
 272:../Libraries/STM32F4xx_StdPeriph_Driver/src/stm32f4xx_spi.c ****   assert_param(IS_SPI_FIRST_BIT(SPI_InitStruct->SPI_FirstBit));
 273:../Libraries/STM32F4xx_StdPeriph_Driver/src/stm32f4xx_spi.c ****   assert_param(IS_SPI_CRC_POLYNOMIAL(SPI_InitStruct->SPI_CRCPolynomial));
 274:../Libraries/STM32F4xx_StdPeriph_Driver/src/stm32f4xx_spi.c **** 
 275:../Libraries/STM32F4xx_StdPeriph_Driver/src/stm32f4xx_spi.c **** /*---------------------------- SPIx CR1 Configuration ------------------------*/
 276:../Libraries/STM32F4xx_StdPeriph_Driver/src/stm32f4xx_spi.c ****   /* Get the SPIx CR1 value */
 277:../Libraries/STM32F4xx_StdPeriph_Driver/src/stm32f4xx_spi.c ****   tmpreg = SPIx->CR1;
 125              		.loc 1 277 0
 126 0010 7B68     		ldr	r3, [r7, #4]
 127 0012 1B88     		ldrh	r3, [r3, #0]	@ movhi
 128 0014 FB81     		strh	r3, [r7, #14]	@ movhi
 278:../Libraries/STM32F4xx_StdPeriph_Driver/src/stm32f4xx_spi.c ****   /* Clear BIDIMode, BIDIOE, RxONLY, SSM, SSI, LSBFirst, BR, MSTR, CPOL and CPHA bits */
 279:../Libraries/STM32F4xx_StdPeriph_Driver/src/stm32f4xx_spi.c ****   tmpreg &= CR1_CLEAR_MASK;
 129              		.loc 1 279 0
 130 0016 FB89     		ldrh	r3, [r7, #14]	@ movhi
 131 0018 03F44153 		and	r3, r3, #12352
 132 001c FB81     		strh	r3, [r7, #14]	@ movhi
 280:../Libraries/STM32F4xx_StdPeriph_Driver/src/stm32f4xx_spi.c ****   /* Configure SPIx: direction, NSS management, first transmitted bit, BaudRate prescaler
 281:../Libraries/STM32F4xx_StdPeriph_Driver/src/stm32f4xx_spi.c ****      master/salve mode, CPOL and CPHA */
 282:../Libraries/STM32F4xx_StdPeriph_Driver/src/stm32f4xx_spi.c ****   /* Set BIDImode, BIDIOE and RxONLY bits according to SPI_Direction value */
 283:../Libraries/STM32F4xx_StdPeriph_Driver/src/stm32f4xx_spi.c ****   /* Set SSM, SSI and MSTR bits according to SPI_Mode and SPI_NSS values */
 284:../Libraries/STM32F4xx_StdPeriph_Driver/src/stm32f4xx_spi.c ****   /* Set LSBFirst bit according to SPI_FirstBit value */
 285:../Libraries/STM32F4xx_StdPeriph_Driver/src/stm32f4xx_spi.c ****   /* Set BR bits according to SPI_BaudRatePrescaler value */
 286:../Libraries/STM32F4xx_StdPeriph_Driver/src/stm32f4xx_spi.c ****   /* Set CPOL bit according to SPI_CPOL value */
 287:../Libraries/STM32F4xx_StdPeriph_Driver/src/stm32f4xx_spi.c ****   /* Set CPHA bit according to SPI_CPHA value */
 288:../Libraries/STM32F4xx_StdPeriph_Driver/src/stm32f4xx_spi.c ****   tmpreg |= (uint16_t)((uint32_t)SPI_InitStruct->SPI_Direction | SPI_InitStruct->SPI_Mode |
 133              		.loc 1 288 0
 134 001e 3B68     		ldr	r3, [r7, #0]
 135 0020 1A88     		ldrh	r2, [r3, #0]
 136 0022 3B68     		ldr	r3, [r7, #0]
 137 0024 5B88     		ldrh	r3, [r3, #2]
 138 0026 1343     		orrs	r3, r3, r2
 139 0028 9AB2     		uxth	r2, r3
 289:../Libraries/STM32F4xx_StdPeriph_Driver/src/stm32f4xx_spi.c ****                   SPI_InitStruct->SPI_DataSize | SPI_InitStruct->SPI_CPOL |  
 140              		.loc 1 289 0
 141 002a 3B68     		ldr	r3, [r7, #0]
 142 002c 9B88     		ldrh	r3, [r3, #4]
 288:../Libraries/STM32F4xx_StdPeriph_Driver/src/stm32f4xx_spi.c ****   tmpreg |= (uint16_t)((uint32_t)SPI_InitStruct->SPI_Direction | SPI_InitStruct->SPI_Mode |
 143              		.loc 1 288 0
 144 002e 1343     		orrs	r3, r3, r2
 145 0030 9AB2     		uxth	r2, r3
 146              		.loc 1 289 0
 147 0032 3B68     		ldr	r3, [r7, #0]
 148 0034 DB88     		ldrh	r3, [r3, #6]
 288:../Libraries/STM32F4xx_StdPeriph_Driver/src/stm32f4xx_spi.c ****   tmpreg |= (uint16_t)((uint32_t)SPI_InitStruct->SPI_Direction | SPI_InitStruct->SPI_Mode |
 149              		.loc 1 288 0
 150 0036 1343     		orrs	r3, r3, r2
 151 0038 9AB2     		uxth	r2, r3
 290:../Libraries/STM32F4xx_StdPeriph_Driver/src/stm32f4xx_spi.c ****                   SPI_InitStruct->SPI_CPHA | SPI_InitStruct->SPI_NSS |  
 152              		.loc 1 290 0
 153 003a 3B68     		ldr	r3, [r7, #0]
 154 003c 1B89     		ldrh	r3, [r3, #8]
 288:../Libraries/STM32F4xx_StdPeriph_Driver/src/stm32f4xx_spi.c ****   tmpreg |= (uint16_t)((uint32_t)SPI_InitStruct->SPI_Direction | SPI_InitStruct->SPI_Mode |
 155              		.loc 1 288 0
 156 003e 1343     		orrs	r3, r3, r2
 157 0040 9AB2     		uxth	r2, r3
 158              		.loc 1 290 0
 159 0042 3B68     		ldr	r3, [r7, #0]
 160 0044 5B89     		ldrh	r3, [r3, #10]
 288:../Libraries/STM32F4xx_StdPeriph_Driver/src/stm32f4xx_spi.c ****   tmpreg |= (uint16_t)((uint32_t)SPI_InitStruct->SPI_Direction | SPI_InitStruct->SPI_Mode |
 161              		.loc 1 288 0
 162 0046 1343     		orrs	r3, r3, r2
 163 0048 9AB2     		uxth	r2, r3
 291:../Libraries/STM32F4xx_StdPeriph_Driver/src/stm32f4xx_spi.c ****                   SPI_InitStruct->SPI_BaudRatePrescaler | SPI_InitStruct->SPI_FirstBit);
 164              		.loc 1 291 0
 165 004a 3B68     		ldr	r3, [r7, #0]
 166 004c 9B89     		ldrh	r3, [r3, #12]
 288:../Libraries/STM32F4xx_StdPeriph_Driver/src/stm32f4xx_spi.c ****   tmpreg |= (uint16_t)((uint32_t)SPI_InitStruct->SPI_Direction | SPI_InitStruct->SPI_Mode |
 167              		.loc 1 288 0
 168 004e 1343     		orrs	r3, r3, r2
 169 0050 9AB2     		uxth	r2, r3
 170              		.loc 1 291 0
 171 0052 3B68     		ldr	r3, [r7, #0]
 172 0054 DB89     		ldrh	r3, [r3, #14]
 288:../Libraries/STM32F4xx_StdPeriph_Driver/src/stm32f4xx_spi.c ****   tmpreg |= (uint16_t)((uint32_t)SPI_InitStruct->SPI_Direction | SPI_InitStruct->SPI_Mode |
 173              		.loc 1 288 0
 174 0056 1343     		orrs	r3, r3, r2
 175 0058 9AB2     		uxth	r2, r3
 176 005a FB89     		ldrh	r3, [r7, #14]	@ movhi
 177 005c 1343     		orrs	r3, r3, r2
 178 005e FB81     		strh	r3, [r7, #14]	@ movhi
 292:../Libraries/STM32F4xx_StdPeriph_Driver/src/stm32f4xx_spi.c ****   /* Write to SPIx CR1 */
 293:../Libraries/STM32F4xx_StdPeriph_Driver/src/stm32f4xx_spi.c ****   SPIx->CR1 = tmpreg;
 179              		.loc 1 293 0
 180 0060 7B68     		ldr	r3, [r7, #4]
 181 0062 FA89     		ldrh	r2, [r7, #14]	@ movhi
 182 0064 1A80     		strh	r2, [r3, #0]	@ movhi
 294:../Libraries/STM32F4xx_StdPeriph_Driver/src/stm32f4xx_spi.c **** 
 295:../Libraries/STM32F4xx_StdPeriph_Driver/src/stm32f4xx_spi.c ****   /* Activate the SPI mode (Reset I2SMOD bit in I2SCFGR register) */
 296:../Libraries/STM32F4xx_StdPeriph_Driver/src/stm32f4xx_spi.c ****   SPIx->I2SCFGR &= (uint16_t)~((uint16_t)SPI_I2SCFGR_I2SMOD);
 183              		.loc 1 296 0
 184 0066 7B68     		ldr	r3, [r7, #4]
 185 0068 9B8B     		ldrh	r3, [r3, #28]	@ movhi
 186 006a 9BB2     		uxth	r3, r3
 187 006c 23F40063 		bic	r3, r3, #2048
 188 0070 9AB2     		uxth	r2, r3
 189 0072 7B68     		ldr	r3, [r7, #4]
 190 0074 9A83     		strh	r2, [r3, #28]	@ movhi
 297:../Libraries/STM32F4xx_StdPeriph_Driver/src/stm32f4xx_spi.c **** /*---------------------------- SPIx CRCPOLY Configuration --------------------*/
 298:../Libraries/STM32F4xx_StdPeriph_Driver/src/stm32f4xx_spi.c ****   /* Write to SPIx CRCPOLY */
 299:../Libraries/STM32F4xx_StdPeriph_Driver/src/stm32f4xx_spi.c ****   SPIx->CRCPR = SPI_InitStruct->SPI_CRCPolynomial;
 191              		.loc 1 299 0
 192 0076 3B68     		ldr	r3, [r7, #0]
 193 0078 1A8A     		ldrh	r2, [r3, #16]
 194 007a 7B68     		ldr	r3, [r7, #4]
 195 007c 1A82     		strh	r2, [r3, #16]	@ movhi
 300:../Libraries/STM32F4xx_StdPeriph_Driver/src/stm32f4xx_spi.c **** }
 196              		.loc 1 300 0
 197 007e 07F11407 		add	r7, r7, #20
 198 0082 BD46     		mov	sp, r7
 199 0084 80BC     		pop	{r7}
 200 0086 7047     		bx	lr
 201              		.cfi_endproc
 202              	.LFE111:
 204              		.section	.text.I2S_Init,"ax",%progbits
 205              		.align	2
 206              		.global	I2S_Init
 207              		.thumb
 208              		.thumb_func
 210              	I2S_Init:
 211              	.LFB112:
 301:../Libraries/STM32F4xx_StdPeriph_Driver/src/stm32f4xx_spi.c **** 
 302:../Libraries/STM32F4xx_StdPeriph_Driver/src/stm32f4xx_spi.c **** /**
 303:../Libraries/STM32F4xx_StdPeriph_Driver/src/stm32f4xx_spi.c ****   * @brief  Initializes the SPIx peripheral according to the specified 
 304:../Libraries/STM32F4xx_StdPeriph_Driver/src/stm32f4xx_spi.c ****   *         parameters in the I2S_InitStruct.
 305:../Libraries/STM32F4xx_StdPeriph_Driver/src/stm32f4xx_spi.c ****   * @param  SPIx: where x can be  2 or 3 to select the SPI peripheral (configured in I2S mode).
 306:../Libraries/STM32F4xx_StdPeriph_Driver/src/stm32f4xx_spi.c ****   * @param  I2S_InitStruct: pointer to an I2S_InitTypeDef structure that
 307:../Libraries/STM32F4xx_StdPeriph_Driver/src/stm32f4xx_spi.c ****   *         contains the configuration information for the specified SPI peripheral
 308:../Libraries/STM32F4xx_StdPeriph_Driver/src/stm32f4xx_spi.c ****   *         configured in I2S mode.
 309:../Libraries/STM32F4xx_StdPeriph_Driver/src/stm32f4xx_spi.c ****   *           
 310:../Libraries/STM32F4xx_StdPeriph_Driver/src/stm32f4xx_spi.c ****   * @note   The function calculates the optimal prescaler needed to obtain the most 
 311:../Libraries/STM32F4xx_StdPeriph_Driver/src/stm32f4xx_spi.c ****   *         accurate audio frequency (depending on the I2S clock source, the PLL values 
 312:../Libraries/STM32F4xx_StdPeriph_Driver/src/stm32f4xx_spi.c ****   *         and the product configuration). But in case the prescaler value is greater 
 313:../Libraries/STM32F4xx_StdPeriph_Driver/src/stm32f4xx_spi.c ****   *         than 511, the default value (0x02) will be configured instead.    
 314:../Libraries/STM32F4xx_StdPeriph_Driver/src/stm32f4xx_spi.c ****   * 
 315:../Libraries/STM32F4xx_StdPeriph_Driver/src/stm32f4xx_spi.c ****   * @note   if an external clock is used as source clock for the I2S, then the define
 316:../Libraries/STM32F4xx_StdPeriph_Driver/src/stm32f4xx_spi.c ****   *         I2S_EXTERNAL_CLOCK_VAL in file stm32f4xx_conf.h should be enabled and set
 317:../Libraries/STM32F4xx_StdPeriph_Driver/src/stm32f4xx_spi.c ****   *         to the value of the the source clock frequency (in Hz).
 318:../Libraries/STM32F4xx_StdPeriph_Driver/src/stm32f4xx_spi.c ****   *  
 319:../Libraries/STM32F4xx_StdPeriph_Driver/src/stm32f4xx_spi.c ****   * @retval None
 320:../Libraries/STM32F4xx_StdPeriph_Driver/src/stm32f4xx_spi.c ****   */
 321:../Libraries/STM32F4xx_StdPeriph_Driver/src/stm32f4xx_spi.c **** void I2S_Init(SPI_TypeDef* SPIx, I2S_InitTypeDef* I2S_InitStruct)
 322:../Libraries/STM32F4xx_StdPeriph_Driver/src/stm32f4xx_spi.c **** {
 212              		.loc 1 322 0
 213              		.cfi_startproc
 214              		@ args = 0, pretend = 0, frame = 40
 215              		@ frame_needed = 1, uses_anonymous_args = 0
 216              		@ link register save eliminated.
 217 0000 80B4     		push	{r7}
 218              	.LCFI6:
 219              		.cfi_def_cfa_offset 4
 220              		.cfi_offset 7, -4
 221 0002 8BB0     		sub	sp, sp, #44
 222              	.LCFI7:
 223              		.cfi_def_cfa_offset 48
 224 0004 00AF     		add	r7, sp, #0
 225              	.LCFI8:
 226              		.cfi_def_cfa_register 7
 227 0006 7860     		str	r0, [r7, #4]
 228 0008 3960     		str	r1, [r7, #0]
 323:../Libraries/STM32F4xx_StdPeriph_Driver/src/stm32f4xx_spi.c ****   uint16_t tmpreg = 0, i2sdiv = 2, i2sodd = 0, packetlength = 1;
 229              		.loc 1 323 0
 230 000a 4FF00003 		mov	r3, #0
 231 000e 7B83     		strh	r3, [r7, #26]	@ movhi
 232 0010 4FF00203 		mov	r3, #2
 233 0014 FB84     		strh	r3, [r7, #38]	@ movhi
 234 0016 4FF00003 		mov	r3, #0
 235 001a BB84     		strh	r3, [r7, #36]	@ movhi
 236 001c 4FF00103 		mov	r3, #1
 237 0020 7B84     		strh	r3, [r7, #34]	@ movhi
 324:../Libraries/STM32F4xx_StdPeriph_Driver/src/stm32f4xx_spi.c ****   uint32_t tmp = 0, i2sclk = 0;
 238              		.loc 1 324 0
 239 0022 4FF00003 		mov	r3, #0
 240 0026 FB61     		str	r3, [r7, #28]
 241 0028 4FF00003 		mov	r3, #0
 242 002c 7B61     		str	r3, [r7, #20]
 325:../Libraries/STM32F4xx_StdPeriph_Driver/src/stm32f4xx_spi.c **** #ifndef I2S_EXTERNAL_CLOCK_VAL
 326:../Libraries/STM32F4xx_StdPeriph_Driver/src/stm32f4xx_spi.c ****   uint32_t pllm = 0, plln = 0, pllr = 0;
 243              		.loc 1 326 0
 244 002e 4FF00003 		mov	r3, #0
 245 0032 3B61     		str	r3, [r7, #16]
 246 0034 4FF00003 		mov	r3, #0
 247 0038 FB60     		str	r3, [r7, #12]
 248 003a 4FF00003 		mov	r3, #0
 249 003e BB60     		str	r3, [r7, #8]
 327:../Libraries/STM32F4xx_StdPeriph_Driver/src/stm32f4xx_spi.c **** #endif /* I2S_EXTERNAL_CLOCK_VAL */
 328:../Libraries/STM32F4xx_StdPeriph_Driver/src/stm32f4xx_spi.c ****   
 329:../Libraries/STM32F4xx_StdPeriph_Driver/src/stm32f4xx_spi.c ****   /* Check the I2S parameters */
 330:../Libraries/STM32F4xx_StdPeriph_Driver/src/stm32f4xx_spi.c ****   assert_param(IS_SPI_23_PERIPH(SPIx));
 331:../Libraries/STM32F4xx_StdPeriph_Driver/src/stm32f4xx_spi.c ****   assert_param(IS_I2S_MODE(I2S_InitStruct->I2S_Mode));
 332:../Libraries/STM32F4xx_StdPeriph_Driver/src/stm32f4xx_spi.c ****   assert_param(IS_I2S_STANDARD(I2S_InitStruct->I2S_Standard));
 333:../Libraries/STM32F4xx_StdPeriph_Driver/src/stm32f4xx_spi.c ****   assert_param(IS_I2S_DATA_FORMAT(I2S_InitStruct->I2S_DataFormat));
 334:../Libraries/STM32F4xx_StdPeriph_Driver/src/stm32f4xx_spi.c ****   assert_param(IS_I2S_MCLK_OUTPUT(I2S_InitStruct->I2S_MCLKOutput));
 335:../Libraries/STM32F4xx_StdPeriph_Driver/src/stm32f4xx_spi.c ****   assert_param(IS_I2S_AUDIO_FREQ(I2S_InitStruct->I2S_AudioFreq));
 336:../Libraries/STM32F4xx_StdPeriph_Driver/src/stm32f4xx_spi.c ****   assert_param(IS_I2S_CPOL(I2S_InitStruct->I2S_CPOL));  
 337:../Libraries/STM32F4xx_StdPeriph_Driver/src/stm32f4xx_spi.c **** 
 338:../Libraries/STM32F4xx_StdPeriph_Driver/src/stm32f4xx_spi.c **** /*----------------------- SPIx I2SCFGR & I2SPR Configuration -----------------*/
 339:../Libraries/STM32F4xx_StdPeriph_Driver/src/stm32f4xx_spi.c ****   /* Clear I2SMOD, I2SE, I2SCFG, PCMSYNC, I2SSTD, CKPOL, DATLEN and CHLEN bits */
 340:../Libraries/STM32F4xx_StdPeriph_Driver/src/stm32f4xx_spi.c ****   SPIx->I2SCFGR &= I2SCFGR_CLEAR_MASK; 
 250              		.loc 1 340 0
 251 0040 7B68     		ldr	r3, [r7, #4]
 252 0042 9B8B     		ldrh	r3, [r3, #28]	@ movhi
 253 0044 9BB2     		uxth	r3, r3
 254 0046 23F47A63 		bic	r3, r3, #4000
 255 004a 23F01F03 		bic	r3, r3, #31
 256 004e 9AB2     		uxth	r2, r3
 257 0050 7B68     		ldr	r3, [r7, #4]
 258 0052 9A83     		strh	r2, [r3, #28]	@ movhi
 341:../Libraries/STM32F4xx_StdPeriph_Driver/src/stm32f4xx_spi.c ****   SPIx->I2SPR = 0x0002;
 259              		.loc 1 341 0
 260 0054 7B68     		ldr	r3, [r7, #4]
 261 0056 4FF00202 		mov	r2, #2
 262 005a 1A84     		strh	r2, [r3, #32]	@ movhi
 342:../Libraries/STM32F4xx_StdPeriph_Driver/src/stm32f4xx_spi.c ****   
 343:../Libraries/STM32F4xx_StdPeriph_Driver/src/stm32f4xx_spi.c ****   /* Get the I2SCFGR register value */
 344:../Libraries/STM32F4xx_StdPeriph_Driver/src/stm32f4xx_spi.c ****   tmpreg = SPIx->I2SCFGR;
 263              		.loc 1 344 0
 264 005c 7B68     		ldr	r3, [r7, #4]
 265 005e 9B8B     		ldrh	r3, [r3, #28]	@ movhi
 266 0060 7B83     		strh	r3, [r7, #26]	@ movhi
 345:../Libraries/STM32F4xx_StdPeriph_Driver/src/stm32f4xx_spi.c ****   
 346:../Libraries/STM32F4xx_StdPeriph_Driver/src/stm32f4xx_spi.c ****   /* If the default value has to be written, reinitialize i2sdiv and i2sodd*/
 347:../Libraries/STM32F4xx_StdPeriph_Driver/src/stm32f4xx_spi.c ****   if(I2S_InitStruct->I2S_AudioFreq == I2S_AudioFreq_Default)
 267              		.loc 1 347 0
 268 0062 3B68     		ldr	r3, [r7, #0]
 269 0064 9B68     		ldr	r3, [r3, #8]
 270 0066 022B     		cmp	r3, #2
 271 0068 06D1     		bne	.L7
 348:../Libraries/STM32F4xx_StdPeriph_Driver/src/stm32f4xx_spi.c ****   {
 349:../Libraries/STM32F4xx_StdPeriph_Driver/src/stm32f4xx_spi.c ****     i2sodd = (uint16_t)0;
 272              		.loc 1 349 0
 273 006a 4FF00003 		mov	r3, #0
 274 006e BB84     		strh	r3, [r7, #36]	@ movhi
 350:../Libraries/STM32F4xx_StdPeriph_Driver/src/stm32f4xx_spi.c ****     i2sdiv = (uint16_t)2;   
 275              		.loc 1 350 0
 276 0070 4FF00203 		mov	r3, #2
 277 0074 FB84     		strh	r3, [r7, #38]	@ movhi
 278 0076 9AE0     		b	.L8
 279              	.L7:
 351:../Libraries/STM32F4xx_StdPeriph_Driver/src/stm32f4xx_spi.c ****   }
 352:../Libraries/STM32F4xx_StdPeriph_Driver/src/stm32f4xx_spi.c ****   /* If the requested audio frequency is not the default, compute the prescaler */
 353:../Libraries/STM32F4xx_StdPeriph_Driver/src/stm32f4xx_spi.c ****   else
 354:../Libraries/STM32F4xx_StdPeriph_Driver/src/stm32f4xx_spi.c ****   {
 355:../Libraries/STM32F4xx_StdPeriph_Driver/src/stm32f4xx_spi.c ****     /* Check the frame length (For the Prescaler computing) *******************/
 356:../Libraries/STM32F4xx_StdPeriph_Driver/src/stm32f4xx_spi.c ****     if(I2S_InitStruct->I2S_DataFormat == I2S_DataFormat_16b)
 280              		.loc 1 356 0
 281 0078 3B68     		ldr	r3, [r7, #0]
 282 007a 9B88     		ldrh	r3, [r3, #4]
 283 007c 002B     		cmp	r3, #0
 284 007e 03D1     		bne	.L9
 357:../Libraries/STM32F4xx_StdPeriph_Driver/src/stm32f4xx_spi.c ****     {
 358:../Libraries/STM32F4xx_StdPeriph_Driver/src/stm32f4xx_spi.c ****       /* Packet length is 16 bits */
 359:../Libraries/STM32F4xx_StdPeriph_Driver/src/stm32f4xx_spi.c ****       packetlength = 1;
 285              		.loc 1 359 0
 286 0080 4FF00103 		mov	r3, #1
 287 0084 7B84     		strh	r3, [r7, #34]	@ movhi
 288 0086 02E0     		b	.L10
 289              	.L9:
 360:../Libraries/STM32F4xx_StdPeriph_Driver/src/stm32f4xx_spi.c ****     }
 361:../Libraries/STM32F4xx_StdPeriph_Driver/src/stm32f4xx_spi.c ****     else
 362:../Libraries/STM32F4xx_StdPeriph_Driver/src/stm32f4xx_spi.c ****     {
 363:../Libraries/STM32F4xx_StdPeriph_Driver/src/stm32f4xx_spi.c ****       /* Packet length is 32 bits */
 364:../Libraries/STM32F4xx_StdPeriph_Driver/src/stm32f4xx_spi.c ****       packetlength = 2;
 290              		.loc 1 364 0
 291 0088 4FF00203 		mov	r3, #2
 292 008c 7B84     		strh	r3, [r7, #34]	@ movhi
 293              	.L10:
 365:../Libraries/STM32F4xx_StdPeriph_Driver/src/stm32f4xx_spi.c ****     }
 366:../Libraries/STM32F4xx_StdPeriph_Driver/src/stm32f4xx_spi.c **** 
 367:../Libraries/STM32F4xx_StdPeriph_Driver/src/stm32f4xx_spi.c ****     /* Get I2S source Clock frequency  ****************************************/
 368:../Libraries/STM32F4xx_StdPeriph_Driver/src/stm32f4xx_spi.c ****       
 369:../Libraries/STM32F4xx_StdPeriph_Driver/src/stm32f4xx_spi.c ****     /* If an external I2S clock has to be used, this define should be set  
 370:../Libraries/STM32F4xx_StdPeriph_Driver/src/stm32f4xx_spi.c ****        in the project configuration or in the stm32f4xx_conf.h file */
 371:../Libraries/STM32F4xx_StdPeriph_Driver/src/stm32f4xx_spi.c ****   #ifdef I2S_EXTERNAL_CLOCK_VAL     
 372:../Libraries/STM32F4xx_StdPeriph_Driver/src/stm32f4xx_spi.c ****     /* Set external clock as I2S clock source */
 373:../Libraries/STM32F4xx_StdPeriph_Driver/src/stm32f4xx_spi.c ****     if ((RCC->CFGR & RCC_CFGR_I2SSRC) == 0)
 374:../Libraries/STM32F4xx_StdPeriph_Driver/src/stm32f4xx_spi.c ****     {
 375:../Libraries/STM32F4xx_StdPeriph_Driver/src/stm32f4xx_spi.c ****       RCC->CFGR |= (uint32_t)RCC_CFGR_I2SSRC;
 376:../Libraries/STM32F4xx_StdPeriph_Driver/src/stm32f4xx_spi.c ****     }
 377:../Libraries/STM32F4xx_StdPeriph_Driver/src/stm32f4xx_spi.c ****     
 378:../Libraries/STM32F4xx_StdPeriph_Driver/src/stm32f4xx_spi.c ****     /* Set the I2S clock to the external clock  value */
 379:../Libraries/STM32F4xx_StdPeriph_Driver/src/stm32f4xx_spi.c ****     i2sclk = I2S_EXTERNAL_CLOCK_VAL;
 380:../Libraries/STM32F4xx_StdPeriph_Driver/src/stm32f4xx_spi.c **** 
 381:../Libraries/STM32F4xx_StdPeriph_Driver/src/stm32f4xx_spi.c ****   #else /* There is no define for External I2S clock source */
 382:../Libraries/STM32F4xx_StdPeriph_Driver/src/stm32f4xx_spi.c ****     /* Set PLLI2S as I2S clock source */
 383:../Libraries/STM32F4xx_StdPeriph_Driver/src/stm32f4xx_spi.c ****     if ((RCC->CFGR & RCC_CFGR_I2SSRC) != 0)
 294              		.loc 1 383 0
 295 008e 4FF46053 		mov	r3, #14336
 296 0092 C4F20203 		movt	r3, 16386
 297 0096 9B68     		ldr	r3, [r3, #8]
 298 0098 03F40003 		and	r3, r3, #8388608
 299 009c 002B     		cmp	r3, #0
 300 009e 0BD0     		beq	.L11
 384:../Libraries/STM32F4xx_StdPeriph_Driver/src/stm32f4xx_spi.c ****     {
 385:../Libraries/STM32F4xx_StdPeriph_Driver/src/stm32f4xx_spi.c ****       RCC->CFGR &= ~(uint32_t)RCC_CFGR_I2SSRC;
 301              		.loc 1 385 0
 302 00a0 4FF46053 		mov	r3, #14336
 303 00a4 C4F20203 		movt	r3, 16386
 304 00a8 4FF46052 		mov	r2, #14336
 305 00ac C4F20202 		movt	r2, 16386
 306 00b0 9268     		ldr	r2, [r2, #8]
 307 00b2 22F40002 		bic	r2, r2, #8388608
 308 00b6 9A60     		str	r2, [r3, #8]
 309              	.L11:
 386:../Libraries/STM32F4xx_StdPeriph_Driver/src/stm32f4xx_spi.c ****     }    
 387:../Libraries/STM32F4xx_StdPeriph_Driver/src/stm32f4xx_spi.c ****     
 388:../Libraries/STM32F4xx_StdPeriph_Driver/src/stm32f4xx_spi.c ****     /* Get the PLLI2SN value */
 389:../Libraries/STM32F4xx_StdPeriph_Driver/src/stm32f4xx_spi.c ****     plln = (uint32_t)(((RCC->PLLI2SCFGR & RCC_PLLI2SCFGR_PLLI2SN) >> 6) & \
 310              		.loc 1 389 0
 311 00b8 4FF46053 		mov	r3, #14336
 312 00bc C4F20203 		movt	r3, 16386
 313 00c0 D3F88420 		ldr	r2, [r3, #132]
 314 00c4 47F6C073 		movw	r3, #32704
 315 00c8 1340     		ands	r3, r3, r2
 316 00ca 4FEA9313 		lsr	r3, r3, #6
 317 00ce 4FEAC353 		lsl	r3, r3, #23
 318 00d2 4FEAD353 		lsr	r3, r3, #23
 319 00d6 FB60     		str	r3, [r7, #12]
 390:../Libraries/STM32F4xx_StdPeriph_Driver/src/stm32f4xx_spi.c ****                       (RCC_PLLI2SCFGR_PLLI2SN >> 6));
 391:../Libraries/STM32F4xx_StdPeriph_Driver/src/stm32f4xx_spi.c ****     
 392:../Libraries/STM32F4xx_StdPeriph_Driver/src/stm32f4xx_spi.c ****     /* Get the PLLI2SR value */
 393:../Libraries/STM32F4xx_StdPeriph_Driver/src/stm32f4xx_spi.c ****     pllr = (uint32_t)(((RCC->PLLI2SCFGR & RCC_PLLI2SCFGR_PLLI2SR) >> 28) & \
 320              		.loc 1 393 0
 321 00d8 4FF46053 		mov	r3, #14336
 322 00dc C4F20203 		movt	r3, 16386
 323 00e0 D3F88430 		ldr	r3, [r3, #132]
 324 00e4 03F0E043 		and	r3, r3, #1879048192
 325 00e8 4FEA1373 		lsr	r3, r3, #28
 326 00ec 03F00703 		and	r3, r3, #7
 327 00f0 BB60     		str	r3, [r7, #8]
 394:../Libraries/STM32F4xx_StdPeriph_Driver/src/stm32f4xx_spi.c ****                       (RCC_PLLI2SCFGR_PLLI2SR >> 28));
 395:../Libraries/STM32F4xx_StdPeriph_Driver/src/stm32f4xx_spi.c ****     
 396:../Libraries/STM32F4xx_StdPeriph_Driver/src/stm32f4xx_spi.c ****     /* Get the PLLM value */
 397:../Libraries/STM32F4xx_StdPeriph_Driver/src/stm32f4xx_spi.c ****     pllm = (uint32_t)(RCC->PLLCFGR & RCC_PLLCFGR_PLLM);      
 328              		.loc 1 397 0
 329 00f2 4FF46053 		mov	r3, #14336
 330 00f6 C4F20203 		movt	r3, 16386
 331 00fa 5B68     		ldr	r3, [r3, #4]
 332 00fc 03F03F03 		and	r3, r3, #63
 333 0100 3B61     		str	r3, [r7, #16]
 398:../Libraries/STM32F4xx_StdPeriph_Driver/src/stm32f4xx_spi.c ****     
 399:../Libraries/STM32F4xx_StdPeriph_Driver/src/stm32f4xx_spi.c ****     /* Get the I2S source clock value */
 400:../Libraries/STM32F4xx_StdPeriph_Driver/src/stm32f4xx_spi.c ****     i2sclk = (uint32_t)(((HSE_VALUE / pllm) * plln) / pllr);
 334              		.loc 1 400 0
 335 0102 4FF49053 		mov	r3, #4608
 336 0106 C0F27A03 		movt	r3, 122
 337 010a 3A69     		ldr	r2, [r7, #16]
 338 010c B3FBF2F3 		udiv	r3, r3, r2
 339 0110 FA68     		ldr	r2, [r7, #12]
 340 0112 02FB03F2 		mul	r2, r2, r3
 341 0116 BB68     		ldr	r3, [r7, #8]
 342 0118 B2FBF3F3 		udiv	r3, r2, r3
 343 011c 7B61     		str	r3, [r7, #20]
 401:../Libraries/STM32F4xx_StdPeriph_Driver/src/stm32f4xx_spi.c ****   #endif /* I2S_EXTERNAL_CLOCK_VAL */
 402:../Libraries/STM32F4xx_StdPeriph_Driver/src/stm32f4xx_spi.c ****     
 403:../Libraries/STM32F4xx_StdPeriph_Driver/src/stm32f4xx_spi.c ****     /* Compute the Real divider depending on the MCLK output state, with a floating point */
 404:../Libraries/STM32F4xx_StdPeriph_Driver/src/stm32f4xx_spi.c ****     if(I2S_InitStruct->I2S_MCLKOutput == I2S_MCLKOutput_Enable)
 344              		.loc 1 404 0
 345 011e 3B68     		ldr	r3, [r7, #0]
 346 0120 DB88     		ldrh	r3, [r3, #6]
 347 0122 B3F5007F 		cmp	r3, #512
 348 0126 13D1     		bne	.L12
 405:../Libraries/STM32F4xx_StdPeriph_Driver/src/stm32f4xx_spi.c ****     {
 406:../Libraries/STM32F4xx_StdPeriph_Driver/src/stm32f4xx_spi.c ****       /* MCLK output is enabled */
 407:../Libraries/STM32F4xx_StdPeriph_Driver/src/stm32f4xx_spi.c ****       tmp = (uint16_t)(((((i2sclk / 256) * 10) / I2S_InitStruct->I2S_AudioFreq)) + 5);
 349              		.loc 1 407 0
 350 0128 7B69     		ldr	r3, [r7, #20]
 351 012a 4FEA1322 		lsr	r2, r3, #8
 352 012e 1346     		mov	r3, r2
 353 0130 4FEA8303 		lsl	r3, r3, #2
 354 0134 9B18     		adds	r3, r3, r2
 355 0136 4FEA4303 		lsl	r3, r3, #1
 356 013a 1A46     		mov	r2, r3
 357 013c 3B68     		ldr	r3, [r7, #0]
 358 013e 9B68     		ldr	r3, [r3, #8]
 359 0140 B2FBF3F3 		udiv	r3, r2, r3
 360 0144 9BB2     		uxth	r3, r3
 361 0146 03F10503 		add	r3, r3, #5
 362 014a 9BB2     		uxth	r3, r3
 363 014c FB61     		str	r3, [r7, #28]
 364 014e 15E0     		b	.L13
 365              	.L12:
 408:../Libraries/STM32F4xx_StdPeriph_Driver/src/stm32f4xx_spi.c ****     }
 409:../Libraries/STM32F4xx_StdPeriph_Driver/src/stm32f4xx_spi.c ****     else
 410:../Libraries/STM32F4xx_StdPeriph_Driver/src/stm32f4xx_spi.c ****     {
 411:../Libraries/STM32F4xx_StdPeriph_Driver/src/stm32f4xx_spi.c ****       /* MCLK output is disabled */
 412:../Libraries/STM32F4xx_StdPeriph_Driver/src/stm32f4xx_spi.c ****       tmp = (uint16_t)(((((i2sclk / (32 * packetlength)) *10 ) / I2S_InitStruct->I2S_AudioFreq)) + 
 366              		.loc 1 412 0
 367 0150 7B8C     		ldrh	r3, [r7, #34]
 368 0152 4FEA4313 		lsl	r3, r3, #5
 369 0156 7A69     		ldr	r2, [r7, #20]
 370 0158 B2FBF3F2 		udiv	r2, r2, r3
 371 015c 1346     		mov	r3, r2
 372 015e 4FEA8303 		lsl	r3, r3, #2
 373 0162 9B18     		adds	r3, r3, r2
 374 0164 4FEA4303 		lsl	r3, r3, #1
 375 0168 1A46     		mov	r2, r3
 376 016a 3B68     		ldr	r3, [r7, #0]
 377 016c 9B68     		ldr	r3, [r3, #8]
 378 016e B2FBF3F3 		udiv	r3, r2, r3
 379 0172 9BB2     		uxth	r3, r3
 380 0174 03F10503 		add	r3, r3, #5
 381 0178 9BB2     		uxth	r3, r3
 382 017a FB61     		str	r3, [r7, #28]
 383              	.L13:
 413:../Libraries/STM32F4xx_StdPeriph_Driver/src/stm32f4xx_spi.c ****     }
 414:../Libraries/STM32F4xx_StdPeriph_Driver/src/stm32f4xx_spi.c ****     
 415:../Libraries/STM32F4xx_StdPeriph_Driver/src/stm32f4xx_spi.c ****     /* Remove the flatting point */
 416:../Libraries/STM32F4xx_StdPeriph_Driver/src/stm32f4xx_spi.c ****     tmp = tmp / 10;  
 384              		.loc 1 416 0
 385 017c FA69     		ldr	r2, [r7, #28]
 386 017e 4CF6CD43 		movw	r3, #52429
 387 0182 CCF6CC43 		movt	r3, 52428
 388 0186 A3FB0213 		umull	r1, r3, r3, r2
 389 018a 4FEAD303 		lsr	r3, r3, #3
 390 018e FB61     		str	r3, [r7, #28]
 417:../Libraries/STM32F4xx_StdPeriph_Driver/src/stm32f4xx_spi.c ****       
 418:../Libraries/STM32F4xx_StdPeriph_Driver/src/stm32f4xx_spi.c ****     /* Check the parity of the divider */
 419:../Libraries/STM32F4xx_StdPeriph_Driver/src/stm32f4xx_spi.c ****     i2sodd = (uint16_t)(tmp & (uint16_t)0x0001);
 391              		.loc 1 419 0
 392 0190 FB69     		ldr	r3, [r7, #28]
 393 0192 9BB2     		uxth	r3, r3
 394 0194 03F00103 		and	r3, r3, #1
 395 0198 BB84     		strh	r3, [r7, #36]	@ movhi
 420:../Libraries/STM32F4xx_StdPeriph_Driver/src/stm32f4xx_spi.c ****    
 421:../Libraries/STM32F4xx_StdPeriph_Driver/src/stm32f4xx_spi.c ****     /* Compute the i2sdiv prescaler */
 422:../Libraries/STM32F4xx_StdPeriph_Driver/src/stm32f4xx_spi.c ****     i2sdiv = (uint16_t)((tmp - i2sodd) / 2);
 396              		.loc 1 422 0
 397 019a BB8C     		ldrh	r3, [r7, #36]
 398 019c FA69     		ldr	r2, [r7, #28]
 399 019e D31A     		subs	r3, r2, r3
 400 01a0 4FEA5303 		lsr	r3, r3, #1
 401 01a4 FB84     		strh	r3, [r7, #38]	@ movhi
 423:../Libraries/STM32F4xx_StdPeriph_Driver/src/stm32f4xx_spi.c ****    
 424:../Libraries/STM32F4xx_StdPeriph_Driver/src/stm32f4xx_spi.c ****     /* Get the Mask for the Odd bit (SPI_I2SPR[8]) register */
 425:../Libraries/STM32F4xx_StdPeriph_Driver/src/stm32f4xx_spi.c ****     i2sodd = (uint16_t) (i2sodd << 8);
 402              		.loc 1 425 0
 403 01a6 BB8C     		ldrh	r3, [r7, #36]	@ movhi
 404 01a8 4FEA0323 		lsl	r3, r3, #8
 405 01ac BB84     		strh	r3, [r7, #36]	@ movhi
 406              	.L8:
 426:../Libraries/STM32F4xx_StdPeriph_Driver/src/stm32f4xx_spi.c ****   }
 427:../Libraries/STM32F4xx_StdPeriph_Driver/src/stm32f4xx_spi.c **** 
 428:../Libraries/STM32F4xx_StdPeriph_Driver/src/stm32f4xx_spi.c ****   /* Test if the divider is 1 or 0 or greater than 0xFF */
 429:../Libraries/STM32F4xx_StdPeriph_Driver/src/stm32f4xx_spi.c ****   if ((i2sdiv < 2) || (i2sdiv > 0xFF))
 407              		.loc 1 429 0
 408 01ae FB8C     		ldrh	r3, [r7, #38]
 409 01b0 012B     		cmp	r3, #1
 410 01b2 02D9     		bls	.L14
 411              		.loc 1 429 0 is_stmt 0 discriminator 1
 412 01b4 FB8C     		ldrh	r3, [r7, #38]
 413 01b6 FF2B     		cmp	r3, #255
 414 01b8 05D9     		bls	.L15
 415              	.L14:
 430:../Libraries/STM32F4xx_StdPeriph_Driver/src/stm32f4xx_spi.c ****   {
 431:../Libraries/STM32F4xx_StdPeriph_Driver/src/stm32f4xx_spi.c ****     /* Set the default values */
 432:../Libraries/STM32F4xx_StdPeriph_Driver/src/stm32f4xx_spi.c ****     i2sdiv = 2;
 416              		.loc 1 432 0 is_stmt 1
 417 01ba 4FF00203 		mov	r3, #2
 418 01be FB84     		strh	r3, [r7, #38]	@ movhi
 433:../Libraries/STM32F4xx_StdPeriph_Driver/src/stm32f4xx_spi.c ****     i2sodd = 0;
 419              		.loc 1 433 0
 420 01c0 4FF00003 		mov	r3, #0
 421 01c4 BB84     		strh	r3, [r7, #36]	@ movhi
 422              	.L15:
 434:../Libraries/STM32F4xx_StdPeriph_Driver/src/stm32f4xx_spi.c ****   }
 435:../Libraries/STM32F4xx_StdPeriph_Driver/src/stm32f4xx_spi.c **** 
 436:../Libraries/STM32F4xx_StdPeriph_Driver/src/stm32f4xx_spi.c ****   /* Write to SPIx I2SPR register the computed value */
 437:../Libraries/STM32F4xx_StdPeriph_Driver/src/stm32f4xx_spi.c ****   SPIx->I2SPR = (uint16_t)((uint16_t)i2sdiv | (uint16_t)(i2sodd | (uint16_t)I2S_InitStruct->I2S_MCL
 423              		.loc 1 437 0
 424 01c6 3B68     		ldr	r3, [r7, #0]
 425 01c8 DA88     		ldrh	r2, [r3, #6]
 426 01ca BB8C     		ldrh	r3, [r7, #36]	@ movhi
 427 01cc 1343     		orrs	r3, r3, r2
 428 01ce 9AB2     		uxth	r2, r3
 429 01d0 FB8C     		ldrh	r3, [r7, #38]	@ movhi
 430 01d2 1343     		orrs	r3, r3, r2
 431 01d4 9AB2     		uxth	r2, r3
 432 01d6 7B68     		ldr	r3, [r7, #4]
 433 01d8 1A84     		strh	r2, [r3, #32]	@ movhi
 438:../Libraries/STM32F4xx_StdPeriph_Driver/src/stm32f4xx_spi.c ****  
 439:../Libraries/STM32F4xx_StdPeriph_Driver/src/stm32f4xx_spi.c ****   /* Configure the I2S with the SPI_InitStruct values */
 440:../Libraries/STM32F4xx_StdPeriph_Driver/src/stm32f4xx_spi.c ****   tmpreg |= (uint16_t)((uint16_t)SPI_I2SCFGR_I2SMOD | (uint16_t)(I2S_InitStruct->I2S_Mode | \
 434              		.loc 1 440 0
 435 01da 3B68     		ldr	r3, [r7, #0]
 436 01dc 1A88     		ldrh	r2, [r3, #0]
 441:../Libraries/STM32F4xx_StdPeriph_Driver/src/stm32f4xx_spi.c ****                   (uint16_t)(I2S_InitStruct->I2S_Standard | (uint16_t)(I2S_InitStruct->I2S_DataForm
 437              		.loc 1 441 0
 438 01de 3B68     		ldr	r3, [r7, #0]
 439 01e0 5988     		ldrh	r1, [r3, #2]
 440 01e2 3B68     		ldr	r3, [r7, #0]
 441 01e4 9888     		ldrh	r0, [r3, #4]
 442:../Libraries/STM32F4xx_StdPeriph_Driver/src/stm32f4xx_spi.c ****                   (uint16_t)I2S_InitStruct->I2S_CPOL))));
 442              		.loc 1 442 0
 443 01e6 3B68     		ldr	r3, [r7, #0]
 444 01e8 9B89     		ldrh	r3, [r3, #12]
 441:../Libraries/STM32F4xx_StdPeriph_Driver/src/stm32f4xx_spi.c ****                   (uint16_t)(I2S_InitStruct->I2S_Standard | (uint16_t)(I2S_InitStruct->I2S_DataForm
 445              		.loc 1 441 0
 446 01ea 0343     		orrs	r3, r3, r0
 447 01ec 9BB2     		uxth	r3, r3
 448 01ee 0B43     		orrs	r3, r3, r1
 449 01f0 9BB2     		uxth	r3, r3
 440:../Libraries/STM32F4xx_StdPeriph_Driver/src/stm32f4xx_spi.c ****   tmpreg |= (uint16_t)((uint16_t)SPI_I2SCFGR_I2SMOD | (uint16_t)(I2S_InitStruct->I2S_Mode | \
 450              		.loc 1 440 0
 451 01f2 1343     		orrs	r3, r3, r2
 452 01f4 9AB2     		uxth	r2, r3
 453 01f6 7B8B     		ldrh	r3, [r7, #26]	@ movhi
 454 01f8 1343     		orrs	r3, r3, r2
 455 01fa 9BB2     		uxth	r3, r3
 456 01fc 43F40063 		orr	r3, r3, #2048
 457 0200 7B83     		strh	r3, [r7, #26]	@ movhi
 443:../Libraries/STM32F4xx_StdPeriph_Driver/src/stm32f4xx_spi.c ****  
 444:../Libraries/STM32F4xx_StdPeriph_Driver/src/stm32f4xx_spi.c ****   /* Write to SPIx I2SCFGR */  
 445:../Libraries/STM32F4xx_StdPeriph_Driver/src/stm32f4xx_spi.c ****   SPIx->I2SCFGR = tmpreg;
 458              		.loc 1 445 0
 459 0202 7B68     		ldr	r3, [r7, #4]
 460 0204 7A8B     		ldrh	r2, [r7, #26]	@ movhi
 461 0206 9A83     		strh	r2, [r3, #28]	@ movhi
 446:../Libraries/STM32F4xx_StdPeriph_Driver/src/stm32f4xx_spi.c **** }
 462              		.loc 1 446 0
 463 0208 07F12C07 		add	r7, r7, #44
 464 020c BD46     		mov	sp, r7
 465 020e 80BC     		pop	{r7}
 466 0210 7047     		bx	lr
 467              		.cfi_endproc
 468              	.LFE112:
 470 0212 00BF     		.section	.text.SPI_StructInit,"ax",%progbits
 471              		.align	2
 472              		.global	SPI_StructInit
 473              		.thumb
 474              		.thumb_func
 476              	SPI_StructInit:
 477              	.LFB113:
 447:../Libraries/STM32F4xx_StdPeriph_Driver/src/stm32f4xx_spi.c **** 
 448:../Libraries/STM32F4xx_StdPeriph_Driver/src/stm32f4xx_spi.c **** /**
 449:../Libraries/STM32F4xx_StdPeriph_Driver/src/stm32f4xx_spi.c ****   * @brief  Fills each SPI_InitStruct member with its default value.
 450:../Libraries/STM32F4xx_StdPeriph_Driver/src/stm32f4xx_spi.c ****   * @param  SPI_InitStruct: pointer to a SPI_InitTypeDef structure which will be initialized.
 451:../Libraries/STM32F4xx_StdPeriph_Driver/src/stm32f4xx_spi.c ****   * @retval None
 452:../Libraries/STM32F4xx_StdPeriph_Driver/src/stm32f4xx_spi.c ****   */
 453:../Libraries/STM32F4xx_StdPeriph_Driver/src/stm32f4xx_spi.c **** void SPI_StructInit(SPI_InitTypeDef* SPI_InitStruct)
 454:../Libraries/STM32F4xx_StdPeriph_Driver/src/stm32f4xx_spi.c **** {
 478              		.loc 1 454 0
 479              		.cfi_startproc
 480              		@ args = 0, pretend = 0, frame = 8
 481              		@ frame_needed = 1, uses_anonymous_args = 0
 482              		@ link register save eliminated.
 483 0000 80B4     		push	{r7}
 484              	.LCFI9:
 485              		.cfi_def_cfa_offset 4
 486              		.cfi_offset 7, -4
 487 0002 83B0     		sub	sp, sp, #12
 488              	.LCFI10:
 489              		.cfi_def_cfa_offset 16
 490 0004 00AF     		add	r7, sp, #0
 491              	.LCFI11:
 492              		.cfi_def_cfa_register 7
 493 0006 7860     		str	r0, [r7, #4]
 455:../Libraries/STM32F4xx_StdPeriph_Driver/src/stm32f4xx_spi.c **** /*--------------- Reset SPI init structure parameters values -----------------*/
 456:../Libraries/STM32F4xx_StdPeriph_Driver/src/stm32f4xx_spi.c ****   /* Initialize the SPI_Direction member */
 457:../Libraries/STM32F4xx_StdPeriph_Driver/src/stm32f4xx_spi.c ****   SPI_InitStruct->SPI_Direction = SPI_Direction_2Lines_FullDuplex;
 494              		.loc 1 457 0
 495 0008 7B68     		ldr	r3, [r7, #4]
 496 000a 4FF00002 		mov	r2, #0
 497 000e 1A80     		strh	r2, [r3, #0]	@ movhi
 458:../Libraries/STM32F4xx_StdPeriph_Driver/src/stm32f4xx_spi.c ****   /* initialize the SPI_Mode member */
 459:../Libraries/STM32F4xx_StdPeriph_Driver/src/stm32f4xx_spi.c ****   SPI_InitStruct->SPI_Mode = SPI_Mode_Slave;
 498              		.loc 1 459 0
 499 0010 7B68     		ldr	r3, [r7, #4]
 500 0012 4FF00002 		mov	r2, #0
 501 0016 5A80     		strh	r2, [r3, #2]	@ movhi
 460:../Libraries/STM32F4xx_StdPeriph_Driver/src/stm32f4xx_spi.c ****   /* initialize the SPI_DataSize member */
 461:../Libraries/STM32F4xx_StdPeriph_Driver/src/stm32f4xx_spi.c ****   SPI_InitStruct->SPI_DataSize = SPI_DataSize_8b;
 502              		.loc 1 461 0
 503 0018 7B68     		ldr	r3, [r7, #4]
 504 001a 4FF00002 		mov	r2, #0
 505 001e 9A80     		strh	r2, [r3, #4]	@ movhi
 462:../Libraries/STM32F4xx_StdPeriph_Driver/src/stm32f4xx_spi.c ****   /* Initialize the SPI_CPOL member */
 463:../Libraries/STM32F4xx_StdPeriph_Driver/src/stm32f4xx_spi.c ****   SPI_InitStruct->SPI_CPOL = SPI_CPOL_Low;
 506              		.loc 1 463 0
 507 0020 7B68     		ldr	r3, [r7, #4]
 508 0022 4FF00002 		mov	r2, #0
 509 0026 DA80     		strh	r2, [r3, #6]	@ movhi
 464:../Libraries/STM32F4xx_StdPeriph_Driver/src/stm32f4xx_spi.c ****   /* Initialize the SPI_CPHA member */
 465:../Libraries/STM32F4xx_StdPeriph_Driver/src/stm32f4xx_spi.c ****   SPI_InitStruct->SPI_CPHA = SPI_CPHA_1Edge;
 510              		.loc 1 465 0
 511 0028 7B68     		ldr	r3, [r7, #4]
 512 002a 4FF00002 		mov	r2, #0
 513 002e 1A81     		strh	r2, [r3, #8]	@ movhi
 466:../Libraries/STM32F4xx_StdPeriph_Driver/src/stm32f4xx_spi.c ****   /* Initialize the SPI_NSS member */
 467:../Libraries/STM32F4xx_StdPeriph_Driver/src/stm32f4xx_spi.c ****   SPI_InitStruct->SPI_NSS = SPI_NSS_Hard;
 514              		.loc 1 467 0
 515 0030 7B68     		ldr	r3, [r7, #4]
 516 0032 4FF00002 		mov	r2, #0
 517 0036 5A81     		strh	r2, [r3, #10]	@ movhi
 468:../Libraries/STM32F4xx_StdPeriph_Driver/src/stm32f4xx_spi.c ****   /* Initialize the SPI_BaudRatePrescaler member */
 469:../Libraries/STM32F4xx_StdPeriph_Driver/src/stm32f4xx_spi.c ****   SPI_InitStruct->SPI_BaudRatePrescaler = SPI_BaudRatePrescaler_2;
 518              		.loc 1 469 0
 519 0038 7B68     		ldr	r3, [r7, #4]
 520 003a 4FF00002 		mov	r2, #0
 521 003e 9A81     		strh	r2, [r3, #12]	@ movhi
 470:../Libraries/STM32F4xx_StdPeriph_Driver/src/stm32f4xx_spi.c ****   /* Initialize the SPI_FirstBit member */
 471:../Libraries/STM32F4xx_StdPeriph_Driver/src/stm32f4xx_spi.c ****   SPI_InitStruct->SPI_FirstBit = SPI_FirstBit_MSB;
 522              		.loc 1 471 0
 523 0040 7B68     		ldr	r3, [r7, #4]
 524 0042 4FF00002 		mov	r2, #0
 525 0046 DA81     		strh	r2, [r3, #14]	@ movhi
 472:../Libraries/STM32F4xx_StdPeriph_Driver/src/stm32f4xx_spi.c ****   /* Initialize the SPI_CRCPolynomial member */
 473:../Libraries/STM32F4xx_StdPeriph_Driver/src/stm32f4xx_spi.c ****   SPI_InitStruct->SPI_CRCPolynomial = 7;
 526              		.loc 1 473 0
 527 0048 7B68     		ldr	r3, [r7, #4]
 528 004a 4FF00702 		mov	r2, #7
 529 004e 1A82     		strh	r2, [r3, #16]	@ movhi
 474:../Libraries/STM32F4xx_StdPeriph_Driver/src/stm32f4xx_spi.c **** }
 530              		.loc 1 474 0
 531 0050 07F10C07 		add	r7, r7, #12
 532 0054 BD46     		mov	sp, r7
 533 0056 80BC     		pop	{r7}
 534 0058 7047     		bx	lr
 535              		.cfi_endproc
 536              	.LFE113:
 538 005a 00BF     		.section	.text.I2S_StructInit,"ax",%progbits
 539              		.align	2
 540              		.global	I2S_StructInit
 541              		.thumb
 542              		.thumb_func
 544              	I2S_StructInit:
 545              	.LFB114:
 475:../Libraries/STM32F4xx_StdPeriph_Driver/src/stm32f4xx_spi.c **** 
 476:../Libraries/STM32F4xx_StdPeriph_Driver/src/stm32f4xx_spi.c **** /**
 477:../Libraries/STM32F4xx_StdPeriph_Driver/src/stm32f4xx_spi.c ****   * @brief  Fills each I2S_InitStruct member with its default value.
 478:../Libraries/STM32F4xx_StdPeriph_Driver/src/stm32f4xx_spi.c ****   * @param  I2S_InitStruct: pointer to a I2S_InitTypeDef structure which will be initialized.
 479:../Libraries/STM32F4xx_StdPeriph_Driver/src/stm32f4xx_spi.c ****   * @retval None
 480:../Libraries/STM32F4xx_StdPeriph_Driver/src/stm32f4xx_spi.c ****   */
 481:../Libraries/STM32F4xx_StdPeriph_Driver/src/stm32f4xx_spi.c **** void I2S_StructInit(I2S_InitTypeDef* I2S_InitStruct)
 482:../Libraries/STM32F4xx_StdPeriph_Driver/src/stm32f4xx_spi.c **** {
 546              		.loc 1 482 0
 547              		.cfi_startproc
 548              		@ args = 0, pretend = 0, frame = 8
 549              		@ frame_needed = 1, uses_anonymous_args = 0
 550              		@ link register save eliminated.
 551 0000 80B4     		push	{r7}
 552              	.LCFI12:
 553              		.cfi_def_cfa_offset 4
 554              		.cfi_offset 7, -4
 555 0002 83B0     		sub	sp, sp, #12
 556              	.LCFI13:
 557              		.cfi_def_cfa_offset 16
 558 0004 00AF     		add	r7, sp, #0
 559              	.LCFI14:
 560              		.cfi_def_cfa_register 7
 561 0006 7860     		str	r0, [r7, #4]
 483:../Libraries/STM32F4xx_StdPeriph_Driver/src/stm32f4xx_spi.c **** /*--------------- Reset I2S init structure parameters values -----------------*/
 484:../Libraries/STM32F4xx_StdPeriph_Driver/src/stm32f4xx_spi.c ****   /* Initialize the I2S_Mode member */
 485:../Libraries/STM32F4xx_StdPeriph_Driver/src/stm32f4xx_spi.c ****   I2S_InitStruct->I2S_Mode = I2S_Mode_SlaveTx;
 562              		.loc 1 485 0
 563 0008 7B68     		ldr	r3, [r7, #4]
 564 000a 4FF00002 		mov	r2, #0
 565 000e 1A80     		strh	r2, [r3, #0]	@ movhi
 486:../Libraries/STM32F4xx_StdPeriph_Driver/src/stm32f4xx_spi.c ****   
 487:../Libraries/STM32F4xx_StdPeriph_Driver/src/stm32f4xx_spi.c ****   /* Initialize the I2S_Standard member */
 488:../Libraries/STM32F4xx_StdPeriph_Driver/src/stm32f4xx_spi.c ****   I2S_InitStruct->I2S_Standard = I2S_Standard_Phillips;
 566              		.loc 1 488 0
 567 0010 7B68     		ldr	r3, [r7, #4]
 568 0012 4FF00002 		mov	r2, #0
 569 0016 5A80     		strh	r2, [r3, #2]	@ movhi
 489:../Libraries/STM32F4xx_StdPeriph_Driver/src/stm32f4xx_spi.c ****   
 490:../Libraries/STM32F4xx_StdPeriph_Driver/src/stm32f4xx_spi.c ****   /* Initialize the I2S_DataFormat member */
 491:../Libraries/STM32F4xx_StdPeriph_Driver/src/stm32f4xx_spi.c ****   I2S_InitStruct->I2S_DataFormat = I2S_DataFormat_16b;
 570              		.loc 1 491 0
 571 0018 7B68     		ldr	r3, [r7, #4]
 572 001a 4FF00002 		mov	r2, #0
 573 001e 9A80     		strh	r2, [r3, #4]	@ movhi
 492:../Libraries/STM32F4xx_StdPeriph_Driver/src/stm32f4xx_spi.c ****   
 493:../Libraries/STM32F4xx_StdPeriph_Driver/src/stm32f4xx_spi.c ****   /* Initialize the I2S_MCLKOutput member */
 494:../Libraries/STM32F4xx_StdPeriph_Driver/src/stm32f4xx_spi.c ****   I2S_InitStruct->I2S_MCLKOutput = I2S_MCLKOutput_Disable;
 574              		.loc 1 494 0
 575 0020 7B68     		ldr	r3, [r7, #4]
 576 0022 4FF00002 		mov	r2, #0
 577 0026 DA80     		strh	r2, [r3, #6]	@ movhi
 495:../Libraries/STM32F4xx_StdPeriph_Driver/src/stm32f4xx_spi.c ****   
 496:../Libraries/STM32F4xx_StdPeriph_Driver/src/stm32f4xx_spi.c ****   /* Initialize the I2S_AudioFreq member */
 497:../Libraries/STM32F4xx_StdPeriph_Driver/src/stm32f4xx_spi.c ****   I2S_InitStruct->I2S_AudioFreq = I2S_AudioFreq_Default;
 578              		.loc 1 497 0
 579 0028 7B68     		ldr	r3, [r7, #4]
 580 002a 4FF00202 		mov	r2, #2
 581 002e 9A60     		str	r2, [r3, #8]
 498:../Libraries/STM32F4xx_StdPeriph_Driver/src/stm32f4xx_spi.c ****   
 499:../Libraries/STM32F4xx_StdPeriph_Driver/src/stm32f4xx_spi.c ****   /* Initialize the I2S_CPOL member */
 500:../Libraries/STM32F4xx_StdPeriph_Driver/src/stm32f4xx_spi.c ****   I2S_InitStruct->I2S_CPOL = I2S_CPOL_Low;
 582              		.loc 1 500 0
 583 0030 7B68     		ldr	r3, [r7, #4]
 584 0032 4FF00002 		mov	r2, #0
 585 0036 9A81     		strh	r2, [r3, #12]	@ movhi
 501:../Libraries/STM32F4xx_StdPeriph_Driver/src/stm32f4xx_spi.c **** }
 586              		.loc 1 501 0
 587 0038 07F10C07 		add	r7, r7, #12
 588 003c BD46     		mov	sp, r7
 589 003e 80BC     		pop	{r7}
 590 0040 7047     		bx	lr
 591              		.cfi_endproc
 592              	.LFE114:
 594 0042 00BF     		.section	.text.SPI_Cmd,"ax",%progbits
 595              		.align	2
 596              		.global	SPI_Cmd
 597              		.thumb
 598              		.thumb_func
 600              	SPI_Cmd:
 601              	.LFB115:
 502:../Libraries/STM32F4xx_StdPeriph_Driver/src/stm32f4xx_spi.c **** 
 503:../Libraries/STM32F4xx_StdPeriph_Driver/src/stm32f4xx_spi.c **** /**
 504:../Libraries/STM32F4xx_StdPeriph_Driver/src/stm32f4xx_spi.c ****   * @brief  Enables or disables the specified SPI peripheral.
 505:../Libraries/STM32F4xx_StdPeriph_Driver/src/stm32f4xx_spi.c ****   * @param  SPIx: where x can be 1, 2 or 3 to select the SPI peripheral.
 506:../Libraries/STM32F4xx_StdPeriph_Driver/src/stm32f4xx_spi.c ****   * @param  NewState: new state of the SPIx peripheral. 
 507:../Libraries/STM32F4xx_StdPeriph_Driver/src/stm32f4xx_spi.c ****   *          This parameter can be: ENABLE or DISABLE.
 508:../Libraries/STM32F4xx_StdPeriph_Driver/src/stm32f4xx_spi.c ****   * @retval None
 509:../Libraries/STM32F4xx_StdPeriph_Driver/src/stm32f4xx_spi.c ****   */
 510:../Libraries/STM32F4xx_StdPeriph_Driver/src/stm32f4xx_spi.c **** void SPI_Cmd(SPI_TypeDef* SPIx, FunctionalState NewState)
 511:../Libraries/STM32F4xx_StdPeriph_Driver/src/stm32f4xx_spi.c **** {
 602              		.loc 1 511 0
 603              		.cfi_startproc
 604              		@ args = 0, pretend = 0, frame = 8
 605              		@ frame_needed = 1, uses_anonymous_args = 0
 606              		@ link register save eliminated.
 607 0000 80B4     		push	{r7}
 608              	.LCFI15:
 609              		.cfi_def_cfa_offset 4
 610              		.cfi_offset 7, -4
 611 0002 83B0     		sub	sp, sp, #12
 612              	.LCFI16:
 613              		.cfi_def_cfa_offset 16
 614 0004 00AF     		add	r7, sp, #0
 615              	.LCFI17:
 616              		.cfi_def_cfa_register 7
 617 0006 7860     		str	r0, [r7, #4]
 618 0008 0B46     		mov	r3, r1
 619 000a FB70     		strb	r3, [r7, #3]
 512:../Libraries/STM32F4xx_StdPeriph_Driver/src/stm32f4xx_spi.c ****   /* Check the parameters */
 513:../Libraries/STM32F4xx_StdPeriph_Driver/src/stm32f4xx_spi.c ****   assert_param(IS_SPI_ALL_PERIPH(SPIx));
 514:../Libraries/STM32F4xx_StdPeriph_Driver/src/stm32f4xx_spi.c ****   assert_param(IS_FUNCTIONAL_STATE(NewState));
 515:../Libraries/STM32F4xx_StdPeriph_Driver/src/stm32f4xx_spi.c ****   if (NewState != DISABLE)
 620              		.loc 1 515 0
 621 000c FB78     		ldrb	r3, [r7, #3]	@ zero_extendqisi2
 622 000e 002B     		cmp	r3, #0
 623 0010 08D0     		beq	.L19
 516:../Libraries/STM32F4xx_StdPeriph_Driver/src/stm32f4xx_spi.c ****   {
 517:../Libraries/STM32F4xx_StdPeriph_Driver/src/stm32f4xx_spi.c ****     /* Enable the selected SPI peripheral */
 518:../Libraries/STM32F4xx_StdPeriph_Driver/src/stm32f4xx_spi.c ****     SPIx->CR1 |= SPI_CR1_SPE;
 624              		.loc 1 518 0
 625 0012 7B68     		ldr	r3, [r7, #4]
 626 0014 1B88     		ldrh	r3, [r3, #0]	@ movhi
 627 0016 9BB2     		uxth	r3, r3
 628 0018 43F04003 		orr	r3, r3, #64
 629 001c 9AB2     		uxth	r2, r3
 630 001e 7B68     		ldr	r3, [r7, #4]
 631 0020 1A80     		strh	r2, [r3, #0]	@ movhi
 632 0022 07E0     		b	.L18
 633              	.L19:
 519:../Libraries/STM32F4xx_StdPeriph_Driver/src/stm32f4xx_spi.c ****   }
 520:../Libraries/STM32F4xx_StdPeriph_Driver/src/stm32f4xx_spi.c ****   else
 521:../Libraries/STM32F4xx_StdPeriph_Driver/src/stm32f4xx_spi.c ****   {
 522:../Libraries/STM32F4xx_StdPeriph_Driver/src/stm32f4xx_spi.c ****     /* Disable the selected SPI peripheral */
 523:../Libraries/STM32F4xx_StdPeriph_Driver/src/stm32f4xx_spi.c ****     SPIx->CR1 &= (uint16_t)~((uint16_t)SPI_CR1_SPE);
 634              		.loc 1 523 0
 635 0024 7B68     		ldr	r3, [r7, #4]
 636 0026 1B88     		ldrh	r3, [r3, #0]	@ movhi
 637 0028 9BB2     		uxth	r3, r3
 638 002a 23F04003 		bic	r3, r3, #64
 639 002e 9AB2     		uxth	r2, r3
 640 0030 7B68     		ldr	r3, [r7, #4]
 641 0032 1A80     		strh	r2, [r3, #0]	@ movhi
 642              	.L18:
 524:../Libraries/STM32F4xx_StdPeriph_Driver/src/stm32f4xx_spi.c ****   }
 525:../Libraries/STM32F4xx_StdPeriph_Driver/src/stm32f4xx_spi.c **** }
 643              		.loc 1 525 0
 644 0034 07F10C07 		add	r7, r7, #12
 645 0038 BD46     		mov	sp, r7
 646 003a 80BC     		pop	{r7}
 647 003c 7047     		bx	lr
 648              		.cfi_endproc
 649              	.LFE115:
 651 003e 00BF     		.section	.text.I2S_Cmd,"ax",%progbits
 652              		.align	2
 653              		.global	I2S_Cmd
 654              		.thumb
 655              		.thumb_func
 657              	I2S_Cmd:
 658              	.LFB116:
 526:../Libraries/STM32F4xx_StdPeriph_Driver/src/stm32f4xx_spi.c **** 
 527:../Libraries/STM32F4xx_StdPeriph_Driver/src/stm32f4xx_spi.c **** /**
 528:../Libraries/STM32F4xx_StdPeriph_Driver/src/stm32f4xx_spi.c ****   * @brief  Enables or disables the specified SPI peripheral (in I2S mode).
 529:../Libraries/STM32F4xx_StdPeriph_Driver/src/stm32f4xx_spi.c ****   * @param  SPIx: where x can be 2 or 3 to select the SPI peripheral (or I2Sxext 
 530:../Libraries/STM32F4xx_StdPeriph_Driver/src/stm32f4xx_spi.c ****   *         for full duplex mode).
 531:../Libraries/STM32F4xx_StdPeriph_Driver/src/stm32f4xx_spi.c ****   * @param  NewState: new state of the SPIx peripheral. 
 532:../Libraries/STM32F4xx_StdPeriph_Driver/src/stm32f4xx_spi.c ****   *         This parameter can be: ENABLE or DISABLE.
 533:../Libraries/STM32F4xx_StdPeriph_Driver/src/stm32f4xx_spi.c ****   * @retval None
 534:../Libraries/STM32F4xx_StdPeriph_Driver/src/stm32f4xx_spi.c ****   */
 535:../Libraries/STM32F4xx_StdPeriph_Driver/src/stm32f4xx_spi.c **** void I2S_Cmd(SPI_TypeDef* SPIx, FunctionalState NewState)
 536:../Libraries/STM32F4xx_StdPeriph_Driver/src/stm32f4xx_spi.c **** {
 659              		.loc 1 536 0
 660              		.cfi_startproc
 661              		@ args = 0, pretend = 0, frame = 8
 662              		@ frame_needed = 1, uses_anonymous_args = 0
 663              		@ link register save eliminated.
 664 0000 80B4     		push	{r7}
 665              	.LCFI18:
 666              		.cfi_def_cfa_offset 4
 667              		.cfi_offset 7, -4
 668 0002 83B0     		sub	sp, sp, #12
 669              	.LCFI19:
 670              		.cfi_def_cfa_offset 16
 671 0004 00AF     		add	r7, sp, #0
 672              	.LCFI20:
 673              		.cfi_def_cfa_register 7
 674 0006 7860     		str	r0, [r7, #4]
 675 0008 0B46     		mov	r3, r1
 676 000a FB70     		strb	r3, [r7, #3]
 537:../Libraries/STM32F4xx_StdPeriph_Driver/src/stm32f4xx_spi.c ****   /* Check the parameters */
 538:../Libraries/STM32F4xx_StdPeriph_Driver/src/stm32f4xx_spi.c ****   assert_param(IS_SPI_23_PERIPH_EXT(SPIx));
 539:../Libraries/STM32F4xx_StdPeriph_Driver/src/stm32f4xx_spi.c ****   assert_param(IS_FUNCTIONAL_STATE(NewState));
 540:../Libraries/STM32F4xx_StdPeriph_Driver/src/stm32f4xx_spi.c ****   
 541:../Libraries/STM32F4xx_StdPeriph_Driver/src/stm32f4xx_spi.c ****   if (NewState != DISABLE)
 677              		.loc 1 541 0
 678 000c FB78     		ldrb	r3, [r7, #3]	@ zero_extendqisi2
 679 000e 002B     		cmp	r3, #0
 680 0010 08D0     		beq	.L22
 542:../Libraries/STM32F4xx_StdPeriph_Driver/src/stm32f4xx_spi.c ****   {
 543:../Libraries/STM32F4xx_StdPeriph_Driver/src/stm32f4xx_spi.c ****     /* Enable the selected SPI peripheral (in I2S mode) */
 544:../Libraries/STM32F4xx_StdPeriph_Driver/src/stm32f4xx_spi.c ****     SPIx->I2SCFGR |= SPI_I2SCFGR_I2SE;
 681              		.loc 1 544 0
 682 0012 7B68     		ldr	r3, [r7, #4]
 683 0014 9B8B     		ldrh	r3, [r3, #28]	@ movhi
 684 0016 9BB2     		uxth	r3, r3
 685 0018 43F48063 		orr	r3, r3, #1024
 686 001c 9AB2     		uxth	r2, r3
 687 001e 7B68     		ldr	r3, [r7, #4]
 688 0020 9A83     		strh	r2, [r3, #28]	@ movhi
 689 0022 07E0     		b	.L21
 690              	.L22:
 545:../Libraries/STM32F4xx_StdPeriph_Driver/src/stm32f4xx_spi.c ****   }
 546:../Libraries/STM32F4xx_StdPeriph_Driver/src/stm32f4xx_spi.c ****   else
 547:../Libraries/STM32F4xx_StdPeriph_Driver/src/stm32f4xx_spi.c ****   {
 548:../Libraries/STM32F4xx_StdPeriph_Driver/src/stm32f4xx_spi.c ****     /* Disable the selected SPI peripheral in I2S mode */
 549:../Libraries/STM32F4xx_StdPeriph_Driver/src/stm32f4xx_spi.c ****     SPIx->I2SCFGR &= (uint16_t)~((uint16_t)SPI_I2SCFGR_I2SE);
 691              		.loc 1 549 0
 692 0024 7B68     		ldr	r3, [r7, #4]
 693 0026 9B8B     		ldrh	r3, [r3, #28]	@ movhi
 694 0028 9BB2     		uxth	r3, r3
 695 002a 23F48063 		bic	r3, r3, #1024
 696 002e 9AB2     		uxth	r2, r3
 697 0030 7B68     		ldr	r3, [r7, #4]
 698 0032 9A83     		strh	r2, [r3, #28]	@ movhi
 699              	.L21:
 550:../Libraries/STM32F4xx_StdPeriph_Driver/src/stm32f4xx_spi.c ****   }
 551:../Libraries/STM32F4xx_StdPeriph_Driver/src/stm32f4xx_spi.c **** }
 700              		.loc 1 551 0
 701 0034 07F10C07 		add	r7, r7, #12
 702 0038 BD46     		mov	sp, r7
 703 003a 80BC     		pop	{r7}
 704 003c 7047     		bx	lr
 705              		.cfi_endproc
 706              	.LFE116:
 708 003e 00BF     		.section	.text.SPI_DataSizeConfig,"ax",%progbits
 709              		.align	2
 710              		.global	SPI_DataSizeConfig
 711              		.thumb
 712              		.thumb_func
 714              	SPI_DataSizeConfig:
 715              	.LFB117:
 552:../Libraries/STM32F4xx_StdPeriph_Driver/src/stm32f4xx_spi.c **** 
 553:../Libraries/STM32F4xx_StdPeriph_Driver/src/stm32f4xx_spi.c **** /**
 554:../Libraries/STM32F4xx_StdPeriph_Driver/src/stm32f4xx_spi.c ****   * @brief  Configures the data size for the selected SPI.
 555:../Libraries/STM32F4xx_StdPeriph_Driver/src/stm32f4xx_spi.c ****   * @param  SPIx: where x can be 1, 2 or 3 to select the SPI peripheral.
 556:../Libraries/STM32F4xx_StdPeriph_Driver/src/stm32f4xx_spi.c ****   * @param  SPI_DataSize: specifies the SPI data size.
 557:../Libraries/STM32F4xx_StdPeriph_Driver/src/stm32f4xx_spi.c ****   *          This parameter can be one of the following values:
 558:../Libraries/STM32F4xx_StdPeriph_Driver/src/stm32f4xx_spi.c ****   *            @arg SPI_DataSize_16b: Set data frame format to 16bit
 559:../Libraries/STM32F4xx_StdPeriph_Driver/src/stm32f4xx_spi.c ****   *            @arg SPI_DataSize_8b: Set data frame format to 8bit
 560:../Libraries/STM32F4xx_StdPeriph_Driver/src/stm32f4xx_spi.c ****   * @retval None
 561:../Libraries/STM32F4xx_StdPeriph_Driver/src/stm32f4xx_spi.c ****   */
 562:../Libraries/STM32F4xx_StdPeriph_Driver/src/stm32f4xx_spi.c **** void SPI_DataSizeConfig(SPI_TypeDef* SPIx, uint16_t SPI_DataSize)
 563:../Libraries/STM32F4xx_StdPeriph_Driver/src/stm32f4xx_spi.c **** {
 716              		.loc 1 563 0
 717              		.cfi_startproc
 718              		@ args = 0, pretend = 0, frame = 8
 719              		@ frame_needed = 1, uses_anonymous_args = 0
 720              		@ link register save eliminated.
 721 0000 80B4     		push	{r7}
 722              	.LCFI21:
 723              		.cfi_def_cfa_offset 4
 724              		.cfi_offset 7, -4
 725 0002 83B0     		sub	sp, sp, #12
 726              	.LCFI22:
 727              		.cfi_def_cfa_offset 16
 728 0004 00AF     		add	r7, sp, #0
 729              	.LCFI23:
 730              		.cfi_def_cfa_register 7
 731 0006 7860     		str	r0, [r7, #4]
 732 0008 0B46     		mov	r3, r1
 733 000a 7B80     		strh	r3, [r7, #2]	@ movhi
 564:../Libraries/STM32F4xx_StdPeriph_Driver/src/stm32f4xx_spi.c ****   /* Check the parameters */
 565:../Libraries/STM32F4xx_StdPeriph_Driver/src/stm32f4xx_spi.c ****   assert_param(IS_SPI_ALL_PERIPH(SPIx));
 566:../Libraries/STM32F4xx_StdPeriph_Driver/src/stm32f4xx_spi.c ****   assert_param(IS_SPI_DATASIZE(SPI_DataSize));
 567:../Libraries/STM32F4xx_StdPeriph_Driver/src/stm32f4xx_spi.c ****   /* Clear DFF bit */
 568:../Libraries/STM32F4xx_StdPeriph_Driver/src/stm32f4xx_spi.c ****   SPIx->CR1 &= (uint16_t)~SPI_DataSize_16b;
 734              		.loc 1 568 0
 735 000c 7B68     		ldr	r3, [r7, #4]
 736 000e 1B88     		ldrh	r3, [r3, #0]	@ movhi
 737 0010 9BB2     		uxth	r3, r3
 738 0012 23F40063 		bic	r3, r3, #2048
 739 0016 9AB2     		uxth	r2, r3
 740 0018 7B68     		ldr	r3, [r7, #4]
 741 001a 1A80     		strh	r2, [r3, #0]	@ movhi
 569:../Libraries/STM32F4xx_StdPeriph_Driver/src/stm32f4xx_spi.c ****   /* Set new DFF bit value */
 570:../Libraries/STM32F4xx_StdPeriph_Driver/src/stm32f4xx_spi.c ****   SPIx->CR1 |= SPI_DataSize;
 742              		.loc 1 570 0
 743 001c 7B68     		ldr	r3, [r7, #4]
 744 001e 1B88     		ldrh	r3, [r3, #0]	@ movhi
 745 0020 9AB2     		uxth	r2, r3
 746 0022 7B88     		ldrh	r3, [r7, #2]	@ movhi
 747 0024 1343     		orrs	r3, r3, r2
 748 0026 9AB2     		uxth	r2, r3
 749 0028 7B68     		ldr	r3, [r7, #4]
 750 002a 1A80     		strh	r2, [r3, #0]	@ movhi
 571:../Libraries/STM32F4xx_StdPeriph_Driver/src/stm32f4xx_spi.c **** }
 751              		.loc 1 571 0
 752 002c 07F10C07 		add	r7, r7, #12
 753 0030 BD46     		mov	sp, r7
 754 0032 80BC     		pop	{r7}
 755 0034 7047     		bx	lr
 756              		.cfi_endproc
 757              	.LFE117:
 759 0036 00BF     		.section	.text.SPI_BiDirectionalLineConfig,"ax",%progbits
 760              		.align	2
 761              		.global	SPI_BiDirectionalLineConfig
 762              		.thumb
 763              		.thumb_func
 765              	SPI_BiDirectionalLineConfig:
 766              	.LFB118:
 572:../Libraries/STM32F4xx_StdPeriph_Driver/src/stm32f4xx_spi.c **** 
 573:../Libraries/STM32F4xx_StdPeriph_Driver/src/stm32f4xx_spi.c **** /**
 574:../Libraries/STM32F4xx_StdPeriph_Driver/src/stm32f4xx_spi.c ****   * @brief  Selects the data transfer direction in bidirectional mode for the specified SPI.
 575:../Libraries/STM32F4xx_StdPeriph_Driver/src/stm32f4xx_spi.c ****   * @param  SPIx: where x can be 1, 2 or 3 to select the SPI peripheral.
 576:../Libraries/STM32F4xx_StdPeriph_Driver/src/stm32f4xx_spi.c ****   * @param  SPI_Direction: specifies the data transfer direction in bidirectional mode. 
 577:../Libraries/STM32F4xx_StdPeriph_Driver/src/stm32f4xx_spi.c ****   *          This parameter can be one of the following values:
 578:../Libraries/STM32F4xx_StdPeriph_Driver/src/stm32f4xx_spi.c ****   *            @arg SPI_Direction_Tx: Selects Tx transmission direction
 579:../Libraries/STM32F4xx_StdPeriph_Driver/src/stm32f4xx_spi.c ****   *            @arg SPI_Direction_Rx: Selects Rx receive direction
 580:../Libraries/STM32F4xx_StdPeriph_Driver/src/stm32f4xx_spi.c ****   * @retval None
 581:../Libraries/STM32F4xx_StdPeriph_Driver/src/stm32f4xx_spi.c ****   */
 582:../Libraries/STM32F4xx_StdPeriph_Driver/src/stm32f4xx_spi.c **** void SPI_BiDirectionalLineConfig(SPI_TypeDef* SPIx, uint16_t SPI_Direction)
 583:../Libraries/STM32F4xx_StdPeriph_Driver/src/stm32f4xx_spi.c **** {
 767              		.loc 1 583 0
 768              		.cfi_startproc
 769              		@ args = 0, pretend = 0, frame = 8
 770              		@ frame_needed = 1, uses_anonymous_args = 0
 771              		@ link register save eliminated.
 772 0000 80B4     		push	{r7}
 773              	.LCFI24:
 774              		.cfi_def_cfa_offset 4
 775              		.cfi_offset 7, -4
 776 0002 83B0     		sub	sp, sp, #12
 777              	.LCFI25:
 778              		.cfi_def_cfa_offset 16
 779 0004 00AF     		add	r7, sp, #0
 780              	.LCFI26:
 781              		.cfi_def_cfa_register 7
 782 0006 7860     		str	r0, [r7, #4]
 783 0008 0B46     		mov	r3, r1
 784 000a 7B80     		strh	r3, [r7, #2]	@ movhi
 584:../Libraries/STM32F4xx_StdPeriph_Driver/src/stm32f4xx_spi.c ****   /* Check the parameters */
 585:../Libraries/STM32F4xx_StdPeriph_Driver/src/stm32f4xx_spi.c ****   assert_param(IS_SPI_ALL_PERIPH(SPIx));
 586:../Libraries/STM32F4xx_StdPeriph_Driver/src/stm32f4xx_spi.c ****   assert_param(IS_SPI_DIRECTION(SPI_Direction));
 587:../Libraries/STM32F4xx_StdPeriph_Driver/src/stm32f4xx_spi.c ****   if (SPI_Direction == SPI_Direction_Tx)
 785              		.loc 1 587 0
 786 000c 7B88     		ldrh	r3, [r7, #2]
 787 000e B3F5804F 		cmp	r3, #16384
 788 0012 08D1     		bne	.L26
 588:../Libraries/STM32F4xx_StdPeriph_Driver/src/stm32f4xx_spi.c ****   {
 589:../Libraries/STM32F4xx_StdPeriph_Driver/src/stm32f4xx_spi.c ****     /* Set the Tx only mode */
 590:../Libraries/STM32F4xx_StdPeriph_Driver/src/stm32f4xx_spi.c ****     SPIx->CR1 |= SPI_Direction_Tx;
 789              		.loc 1 590 0
 790 0014 7B68     		ldr	r3, [r7, #4]
 791 0016 1B88     		ldrh	r3, [r3, #0]	@ movhi
 792 0018 9BB2     		uxth	r3, r3
 793 001a 43F48043 		orr	r3, r3, #16384
 794 001e 9AB2     		uxth	r2, r3
 795 0020 7B68     		ldr	r3, [r7, #4]
 796 0022 1A80     		strh	r2, [r3, #0]	@ movhi
 797 0024 07E0     		b	.L25
 798              	.L26:
 591:../Libraries/STM32F4xx_StdPeriph_Driver/src/stm32f4xx_spi.c ****   }
 592:../Libraries/STM32F4xx_StdPeriph_Driver/src/stm32f4xx_spi.c ****   else
 593:../Libraries/STM32F4xx_StdPeriph_Driver/src/stm32f4xx_spi.c ****   {
 594:../Libraries/STM32F4xx_StdPeriph_Driver/src/stm32f4xx_spi.c ****     /* Set the Rx only mode */
 595:../Libraries/STM32F4xx_StdPeriph_Driver/src/stm32f4xx_spi.c ****     SPIx->CR1 &= SPI_Direction_Rx;
 799              		.loc 1 595 0
 800 0026 7B68     		ldr	r3, [r7, #4]
 801 0028 1B88     		ldrh	r3, [r3, #0]	@ movhi
 802 002a 9BB2     		uxth	r3, r3
 803 002c 23F48043 		bic	r3, r3, #16384
 804 0030 9AB2     		uxth	r2, r3
 805 0032 7B68     		ldr	r3, [r7, #4]
 806 0034 1A80     		strh	r2, [r3, #0]	@ movhi
 807              	.L25:
 596:../Libraries/STM32F4xx_StdPeriph_Driver/src/stm32f4xx_spi.c ****   }
 597:../Libraries/STM32F4xx_StdPeriph_Driver/src/stm32f4xx_spi.c **** }
 808              		.loc 1 597 0
 809 0036 07F10C07 		add	r7, r7, #12
 810 003a BD46     		mov	sp, r7
 811 003c 80BC     		pop	{r7}
 812 003e 7047     		bx	lr
 813              		.cfi_endproc
 814              	.LFE118:
 816              		.section	.text.SPI_NSSInternalSoftwareConfig,"ax",%progbits
 817              		.align	2
 818              		.global	SPI_NSSInternalSoftwareConfig
 819              		.thumb
 820              		.thumb_func
 822              	SPI_NSSInternalSoftwareConfig:
 823              	.LFB119:
 598:../Libraries/STM32F4xx_StdPeriph_Driver/src/stm32f4xx_spi.c **** 
 599:../Libraries/STM32F4xx_StdPeriph_Driver/src/stm32f4xx_spi.c **** /**
 600:../Libraries/STM32F4xx_StdPeriph_Driver/src/stm32f4xx_spi.c ****   * @brief  Configures internally by software the NSS pin for the selected SPI.
 601:../Libraries/STM32F4xx_StdPeriph_Driver/src/stm32f4xx_spi.c ****   * @param  SPIx: where x can be 1, 2 or 3 to select the SPI peripheral.
 602:../Libraries/STM32F4xx_StdPeriph_Driver/src/stm32f4xx_spi.c ****   * @param  SPI_NSSInternalSoft: specifies the SPI NSS internal state.
 603:../Libraries/STM32F4xx_StdPeriph_Driver/src/stm32f4xx_spi.c ****   *          This parameter can be one of the following values:
 604:../Libraries/STM32F4xx_StdPeriph_Driver/src/stm32f4xx_spi.c ****   *            @arg SPI_NSSInternalSoft_Set: Set NSS pin internally
 605:../Libraries/STM32F4xx_StdPeriph_Driver/src/stm32f4xx_spi.c ****   *            @arg SPI_NSSInternalSoft_Reset: Reset NSS pin internally
 606:../Libraries/STM32F4xx_StdPeriph_Driver/src/stm32f4xx_spi.c ****   * @retval None
 607:../Libraries/STM32F4xx_StdPeriph_Driver/src/stm32f4xx_spi.c ****   */
 608:../Libraries/STM32F4xx_StdPeriph_Driver/src/stm32f4xx_spi.c **** void SPI_NSSInternalSoftwareConfig(SPI_TypeDef* SPIx, uint16_t SPI_NSSInternalSoft)
 609:../Libraries/STM32F4xx_StdPeriph_Driver/src/stm32f4xx_spi.c **** {
 824              		.loc 1 609 0
 825              		.cfi_startproc
 826              		@ args = 0, pretend = 0, frame = 8
 827              		@ frame_needed = 1, uses_anonymous_args = 0
 828              		@ link register save eliminated.
 829 0000 80B4     		push	{r7}
 830              	.LCFI27:
 831              		.cfi_def_cfa_offset 4
 832              		.cfi_offset 7, -4
 833 0002 83B0     		sub	sp, sp, #12
 834              	.LCFI28:
 835              		.cfi_def_cfa_offset 16
 836 0004 00AF     		add	r7, sp, #0
 837              	.LCFI29:
 838              		.cfi_def_cfa_register 7
 839 0006 7860     		str	r0, [r7, #4]
 840 0008 0B46     		mov	r3, r1
 841 000a 7B80     		strh	r3, [r7, #2]	@ movhi
 610:../Libraries/STM32F4xx_StdPeriph_Driver/src/stm32f4xx_spi.c ****   /* Check the parameters */
 611:../Libraries/STM32F4xx_StdPeriph_Driver/src/stm32f4xx_spi.c ****   assert_param(IS_SPI_ALL_PERIPH(SPIx));
 612:../Libraries/STM32F4xx_StdPeriph_Driver/src/stm32f4xx_spi.c ****   assert_param(IS_SPI_NSS_INTERNAL(SPI_NSSInternalSoft));
 613:../Libraries/STM32F4xx_StdPeriph_Driver/src/stm32f4xx_spi.c ****   if (SPI_NSSInternalSoft != SPI_NSSInternalSoft_Reset)
 842              		.loc 1 613 0
 843 000c 7A88     		ldrh	r2, [r7, #2]
 844 000e 4FF6FF63 		movw	r3, #65279
 845 0012 9A42     		cmp	r2, r3
 846 0014 08D0     		beq	.L29
 614:../Libraries/STM32F4xx_StdPeriph_Driver/src/stm32f4xx_spi.c ****   {
 615:../Libraries/STM32F4xx_StdPeriph_Driver/src/stm32f4xx_spi.c ****     /* Set NSS pin internally by software */
 616:../Libraries/STM32F4xx_StdPeriph_Driver/src/stm32f4xx_spi.c ****     SPIx->CR1 |= SPI_NSSInternalSoft_Set;
 847              		.loc 1 616 0
 848 0016 7B68     		ldr	r3, [r7, #4]
 849 0018 1B88     		ldrh	r3, [r3, #0]	@ movhi
 850 001a 9BB2     		uxth	r3, r3
 851 001c 43F48073 		orr	r3, r3, #256
 852 0020 9AB2     		uxth	r2, r3
 853 0022 7B68     		ldr	r3, [r7, #4]
 854 0024 1A80     		strh	r2, [r3, #0]	@ movhi
 855 0026 07E0     		b	.L28
 856              	.L29:
 617:../Libraries/STM32F4xx_StdPeriph_Driver/src/stm32f4xx_spi.c ****   }
 618:../Libraries/STM32F4xx_StdPeriph_Driver/src/stm32f4xx_spi.c ****   else
 619:../Libraries/STM32F4xx_StdPeriph_Driver/src/stm32f4xx_spi.c ****   {
 620:../Libraries/STM32F4xx_StdPeriph_Driver/src/stm32f4xx_spi.c ****     /* Reset NSS pin internally by software */
 621:../Libraries/STM32F4xx_StdPeriph_Driver/src/stm32f4xx_spi.c ****     SPIx->CR1 &= SPI_NSSInternalSoft_Reset;
 857              		.loc 1 621 0
 858 0028 7B68     		ldr	r3, [r7, #4]
 859 002a 1B88     		ldrh	r3, [r3, #0]	@ movhi
 860 002c 9BB2     		uxth	r3, r3
 861 002e 23F48073 		bic	r3, r3, #256
 862 0032 9AB2     		uxth	r2, r3
 863 0034 7B68     		ldr	r3, [r7, #4]
 864 0036 1A80     		strh	r2, [r3, #0]	@ movhi
 865              	.L28:
 622:../Libraries/STM32F4xx_StdPeriph_Driver/src/stm32f4xx_spi.c ****   }
 623:../Libraries/STM32F4xx_StdPeriph_Driver/src/stm32f4xx_spi.c **** }
 866              		.loc 1 623 0
 867 0038 07F10C07 		add	r7, r7, #12
 868 003c BD46     		mov	sp, r7
 869 003e 80BC     		pop	{r7}
 870 0040 7047     		bx	lr
 871              		.cfi_endproc
 872              	.LFE119:
 874 0042 00BF     		.section	.text.SPI_SSOutputCmd,"ax",%progbits
 875              		.align	2
 876              		.global	SPI_SSOutputCmd
 877              		.thumb
 878              		.thumb_func
 880              	SPI_SSOutputCmd:
 881              	.LFB120:
 624:../Libraries/STM32F4xx_StdPeriph_Driver/src/stm32f4xx_spi.c **** 
 625:../Libraries/STM32F4xx_StdPeriph_Driver/src/stm32f4xx_spi.c **** /**
 626:../Libraries/STM32F4xx_StdPeriph_Driver/src/stm32f4xx_spi.c ****   * @brief  Enables or disables the SS output for the selected SPI.
 627:../Libraries/STM32F4xx_StdPeriph_Driver/src/stm32f4xx_spi.c ****   * @param  SPIx: where x can be 1, 2 or 3 to select the SPI peripheral.
 628:../Libraries/STM32F4xx_StdPeriph_Driver/src/stm32f4xx_spi.c ****   * @param  NewState: new state of the SPIx SS output. 
 629:../Libraries/STM32F4xx_StdPeriph_Driver/src/stm32f4xx_spi.c ****   *          This parameter can be: ENABLE or DISABLE.
 630:../Libraries/STM32F4xx_StdPeriph_Driver/src/stm32f4xx_spi.c ****   * @retval None
 631:../Libraries/STM32F4xx_StdPeriph_Driver/src/stm32f4xx_spi.c ****   */
 632:../Libraries/STM32F4xx_StdPeriph_Driver/src/stm32f4xx_spi.c **** void SPI_SSOutputCmd(SPI_TypeDef* SPIx, FunctionalState NewState)
 633:../Libraries/STM32F4xx_StdPeriph_Driver/src/stm32f4xx_spi.c **** {
 882              		.loc 1 633 0
 883              		.cfi_startproc
 884              		@ args = 0, pretend = 0, frame = 8
 885              		@ frame_needed = 1, uses_anonymous_args = 0
 886              		@ link register save eliminated.
 887 0000 80B4     		push	{r7}
 888              	.LCFI30:
 889              		.cfi_def_cfa_offset 4
 890              		.cfi_offset 7, -4
 891 0002 83B0     		sub	sp, sp, #12
 892              	.LCFI31:
 893              		.cfi_def_cfa_offset 16
 894 0004 00AF     		add	r7, sp, #0
 895              	.LCFI32:
 896              		.cfi_def_cfa_register 7
 897 0006 7860     		str	r0, [r7, #4]
 898 0008 0B46     		mov	r3, r1
 899 000a FB70     		strb	r3, [r7, #3]
 634:../Libraries/STM32F4xx_StdPeriph_Driver/src/stm32f4xx_spi.c ****   /* Check the parameters */
 635:../Libraries/STM32F4xx_StdPeriph_Driver/src/stm32f4xx_spi.c ****   assert_param(IS_SPI_ALL_PERIPH(SPIx));
 636:../Libraries/STM32F4xx_StdPeriph_Driver/src/stm32f4xx_spi.c ****   assert_param(IS_FUNCTIONAL_STATE(NewState));
 637:../Libraries/STM32F4xx_StdPeriph_Driver/src/stm32f4xx_spi.c ****   if (NewState != DISABLE)
 900              		.loc 1 637 0
 901 000c FB78     		ldrb	r3, [r7, #3]	@ zero_extendqisi2
 902 000e 002B     		cmp	r3, #0
 903 0010 08D0     		beq	.L32
 638:../Libraries/STM32F4xx_StdPeriph_Driver/src/stm32f4xx_spi.c ****   {
 639:../Libraries/STM32F4xx_StdPeriph_Driver/src/stm32f4xx_spi.c ****     /* Enable the selected SPI SS output */
 640:../Libraries/STM32F4xx_StdPeriph_Driver/src/stm32f4xx_spi.c ****     SPIx->CR2 |= (uint16_t)SPI_CR2_SSOE;
 904              		.loc 1 640 0
 905 0012 7B68     		ldr	r3, [r7, #4]
 906 0014 9B88     		ldrh	r3, [r3, #4]	@ movhi
 907 0016 9BB2     		uxth	r3, r3
 908 0018 43F00403 		orr	r3, r3, #4
 909 001c 9AB2     		uxth	r2, r3
 910 001e 7B68     		ldr	r3, [r7, #4]
 911 0020 9A80     		strh	r2, [r3, #4]	@ movhi
 912 0022 07E0     		b	.L31
 913              	.L32:
 641:../Libraries/STM32F4xx_StdPeriph_Driver/src/stm32f4xx_spi.c ****   }
 642:../Libraries/STM32F4xx_StdPeriph_Driver/src/stm32f4xx_spi.c ****   else
 643:../Libraries/STM32F4xx_StdPeriph_Driver/src/stm32f4xx_spi.c ****   {
 644:../Libraries/STM32F4xx_StdPeriph_Driver/src/stm32f4xx_spi.c ****     /* Disable the selected SPI SS output */
 645:../Libraries/STM32F4xx_StdPeriph_Driver/src/stm32f4xx_spi.c ****     SPIx->CR2 &= (uint16_t)~((uint16_t)SPI_CR2_SSOE);
 914              		.loc 1 645 0
 915 0024 7B68     		ldr	r3, [r7, #4]
 916 0026 9B88     		ldrh	r3, [r3, #4]	@ movhi
 917 0028 9BB2     		uxth	r3, r3
 918 002a 23F00403 		bic	r3, r3, #4
 919 002e 9AB2     		uxth	r2, r3
 920 0030 7B68     		ldr	r3, [r7, #4]
 921 0032 9A80     		strh	r2, [r3, #4]	@ movhi
 922              	.L31:
 646:../Libraries/STM32F4xx_StdPeriph_Driver/src/stm32f4xx_spi.c ****   }
 647:../Libraries/STM32F4xx_StdPeriph_Driver/src/stm32f4xx_spi.c **** }
 923              		.loc 1 647 0
 924 0034 07F10C07 		add	r7, r7, #12
 925 0038 BD46     		mov	sp, r7
 926 003a 80BC     		pop	{r7}
 927 003c 7047     		bx	lr
 928              		.cfi_endproc
 929              	.LFE120:
 931 003e 00BF     		.section	.text.SPI_TIModeCmd,"ax",%progbits
 932              		.align	2
 933              		.global	SPI_TIModeCmd
 934              		.thumb
 935              		.thumb_func
 937              	SPI_TIModeCmd:
 938              	.LFB121:
 648:../Libraries/STM32F4xx_StdPeriph_Driver/src/stm32f4xx_spi.c **** 
 649:../Libraries/STM32F4xx_StdPeriph_Driver/src/stm32f4xx_spi.c **** /**
 650:../Libraries/STM32F4xx_StdPeriph_Driver/src/stm32f4xx_spi.c ****   * @brief  Enables or disables the SPIx/I2Sx DMA interface.
 651:../Libraries/STM32F4xx_StdPeriph_Driver/src/stm32f4xx_spi.c ****   *   
 652:../Libraries/STM32F4xx_StdPeriph_Driver/src/stm32f4xx_spi.c ****   * @note   This function can be called only after the SPI_Init() function has 
 653:../Libraries/STM32F4xx_StdPeriph_Driver/src/stm32f4xx_spi.c ****   *         been called. 
 654:../Libraries/STM32F4xx_StdPeriph_Driver/src/stm32f4xx_spi.c ****   * @note   When TI mode is selected, the control bits SSM, SSI, CPOL and CPHA 
 655:../Libraries/STM32F4xx_StdPeriph_Driver/src/stm32f4xx_spi.c ****   *         are not taken into consideration and are configured by hardware
 656:../Libraries/STM32F4xx_StdPeriph_Driver/src/stm32f4xx_spi.c ****   *         respectively to the TI mode requirements.  
 657:../Libraries/STM32F4xx_StdPeriph_Driver/src/stm32f4xx_spi.c ****   * 
 658:../Libraries/STM32F4xx_StdPeriph_Driver/src/stm32f4xx_spi.c ****   * @param  SPIx: where x can be 1, 2 or 3 
 659:../Libraries/STM32F4xx_StdPeriph_Driver/src/stm32f4xx_spi.c ****   * @param  NewState: new state of the selected SPI TI communication mode.
 660:../Libraries/STM32F4xx_StdPeriph_Driver/src/stm32f4xx_spi.c ****   *          This parameter can be: ENABLE or DISABLE.
 661:../Libraries/STM32F4xx_StdPeriph_Driver/src/stm32f4xx_spi.c ****   * @retval None
 662:../Libraries/STM32F4xx_StdPeriph_Driver/src/stm32f4xx_spi.c ****   */
 663:../Libraries/STM32F4xx_StdPeriph_Driver/src/stm32f4xx_spi.c **** void SPI_TIModeCmd(SPI_TypeDef* SPIx, FunctionalState NewState)
 664:../Libraries/STM32F4xx_StdPeriph_Driver/src/stm32f4xx_spi.c **** {
 939              		.loc 1 664 0
 940              		.cfi_startproc
 941              		@ args = 0, pretend = 0, frame = 8
 942              		@ frame_needed = 1, uses_anonymous_args = 0
 943              		@ link register save eliminated.
 944 0000 80B4     		push	{r7}
 945              	.LCFI33:
 946              		.cfi_def_cfa_offset 4
 947              		.cfi_offset 7, -4
 948 0002 83B0     		sub	sp, sp, #12
 949              	.LCFI34:
 950              		.cfi_def_cfa_offset 16
 951 0004 00AF     		add	r7, sp, #0
 952              	.LCFI35:
 953              		.cfi_def_cfa_register 7
 954 0006 7860     		str	r0, [r7, #4]
 955 0008 0B46     		mov	r3, r1
 956 000a FB70     		strb	r3, [r7, #3]
 665:../Libraries/STM32F4xx_StdPeriph_Driver/src/stm32f4xx_spi.c ****   /* Check the parameters */
 666:../Libraries/STM32F4xx_StdPeriph_Driver/src/stm32f4xx_spi.c ****   assert_param(IS_SPI_ALL_PERIPH(SPIx));
 667:../Libraries/STM32F4xx_StdPeriph_Driver/src/stm32f4xx_spi.c ****   assert_param(IS_FUNCTIONAL_STATE(NewState));
 668:../Libraries/STM32F4xx_StdPeriph_Driver/src/stm32f4xx_spi.c **** 
 669:../Libraries/STM32F4xx_StdPeriph_Driver/src/stm32f4xx_spi.c ****   if (NewState != DISABLE)
 957              		.loc 1 669 0
 958 000c FB78     		ldrb	r3, [r7, #3]	@ zero_extendqisi2
 959 000e 002B     		cmp	r3, #0
 960 0010 08D0     		beq	.L35
 670:../Libraries/STM32F4xx_StdPeriph_Driver/src/stm32f4xx_spi.c ****   {
 671:../Libraries/STM32F4xx_StdPeriph_Driver/src/stm32f4xx_spi.c ****     /* Enable the TI mode for the selected SPI peripheral */
 672:../Libraries/STM32F4xx_StdPeriph_Driver/src/stm32f4xx_spi.c ****     SPIx->CR2 |= SPI_CR2_FRF;
 961              		.loc 1 672 0
 962 0012 7B68     		ldr	r3, [r7, #4]
 963 0014 9B88     		ldrh	r3, [r3, #4]	@ movhi
 964 0016 9BB2     		uxth	r3, r3
 965 0018 43F01003 		orr	r3, r3, #16
 966 001c 9AB2     		uxth	r2, r3
 967 001e 7B68     		ldr	r3, [r7, #4]
 968 0020 9A80     		strh	r2, [r3, #4]	@ movhi
 969 0022 07E0     		b	.L34
 970              	.L35:
 673:../Libraries/STM32F4xx_StdPeriph_Driver/src/stm32f4xx_spi.c ****   }
 674:../Libraries/STM32F4xx_StdPeriph_Driver/src/stm32f4xx_spi.c ****   else
 675:../Libraries/STM32F4xx_StdPeriph_Driver/src/stm32f4xx_spi.c ****   {
 676:../Libraries/STM32F4xx_StdPeriph_Driver/src/stm32f4xx_spi.c ****     /* Disable the TI mode for the selected SPI peripheral */
 677:../Libraries/STM32F4xx_StdPeriph_Driver/src/stm32f4xx_spi.c ****     SPIx->CR2 &= (uint16_t)~SPI_CR2_FRF;
 971              		.loc 1 677 0
 972 0024 7B68     		ldr	r3, [r7, #4]
 973 0026 9B88     		ldrh	r3, [r3, #4]	@ movhi
 974 0028 9BB2     		uxth	r3, r3
 975 002a 23F01003 		bic	r3, r3, #16
 976 002e 9AB2     		uxth	r2, r3
 977 0030 7B68     		ldr	r3, [r7, #4]
 978 0032 9A80     		strh	r2, [r3, #4]	@ movhi
 979              	.L34:
 678:../Libraries/STM32F4xx_StdPeriph_Driver/src/stm32f4xx_spi.c ****   }
 679:../Libraries/STM32F4xx_StdPeriph_Driver/src/stm32f4xx_spi.c **** }
 980              		.loc 1 679 0
 981 0034 07F10C07 		add	r7, r7, #12
 982 0038 BD46     		mov	sp, r7
 983 003a 80BC     		pop	{r7}
 984 003c 7047     		bx	lr
 985              		.cfi_endproc
 986              	.LFE121:
 988 003e 00BF     		.section	.text.I2S_FullDuplexConfig,"ax",%progbits
 989              		.align	2
 990              		.global	I2S_FullDuplexConfig
 991              		.thumb
 992              		.thumb_func
 994              	I2S_FullDuplexConfig:
 995              	.LFB122:
 680:../Libraries/STM32F4xx_StdPeriph_Driver/src/stm32f4xx_spi.c **** 
 681:../Libraries/STM32F4xx_StdPeriph_Driver/src/stm32f4xx_spi.c **** /**
 682:../Libraries/STM32F4xx_StdPeriph_Driver/src/stm32f4xx_spi.c ****   * @brief  Configures the full duplex mode for the I2Sx peripheral using its
 683:../Libraries/STM32F4xx_StdPeriph_Driver/src/stm32f4xx_spi.c ****   *         extension I2Sxext according to the specified parameters in the 
 684:../Libraries/STM32F4xx_StdPeriph_Driver/src/stm32f4xx_spi.c ****   *         I2S_InitStruct.
 685:../Libraries/STM32F4xx_StdPeriph_Driver/src/stm32f4xx_spi.c ****   * @param  I2Sxext: where x can be  2 or 3 to select the I2S peripheral extension block.
 686:../Libraries/STM32F4xx_StdPeriph_Driver/src/stm32f4xx_spi.c ****   * @param  I2S_InitStruct: pointer to an I2S_InitTypeDef structure that
 687:../Libraries/STM32F4xx_StdPeriph_Driver/src/stm32f4xx_spi.c ****   *         contains the configuration information for the specified I2S peripheral
 688:../Libraries/STM32F4xx_StdPeriph_Driver/src/stm32f4xx_spi.c ****   *         extension.
 689:../Libraries/STM32F4xx_StdPeriph_Driver/src/stm32f4xx_spi.c ****   * 
 690:../Libraries/STM32F4xx_StdPeriph_Driver/src/stm32f4xx_spi.c ****   * @note   The structure pointed by I2S_InitStruct parameter should be the same
 691:../Libraries/STM32F4xx_StdPeriph_Driver/src/stm32f4xx_spi.c ****   *         used for the master I2S peripheral. In this case, if the master is 
 692:../Libraries/STM32F4xx_StdPeriph_Driver/src/stm32f4xx_spi.c ****   *         configured as transmitter, the slave will be receiver and vice versa.
 693:../Libraries/STM32F4xx_StdPeriph_Driver/src/stm32f4xx_spi.c ****   *         Or you can force a different mode by modifying the field I2S_Mode to the
 694:../Libraries/STM32F4xx_StdPeriph_Driver/src/stm32f4xx_spi.c ****   *         value I2S_SlaveRx or I2S_SlaveTx indepedently of the master configuration.    
 695:../Libraries/STM32F4xx_StdPeriph_Driver/src/stm32f4xx_spi.c ****   *         
 696:../Libraries/STM32F4xx_StdPeriph_Driver/src/stm32f4xx_spi.c ****   * @note   The I2S full duplex extension can be configured in slave mode only.    
 697:../Libraries/STM32F4xx_StdPeriph_Driver/src/stm32f4xx_spi.c ****   *  
 698:../Libraries/STM32F4xx_StdPeriph_Driver/src/stm32f4xx_spi.c ****   * @retval None
 699:../Libraries/STM32F4xx_StdPeriph_Driver/src/stm32f4xx_spi.c ****   */
 700:../Libraries/STM32F4xx_StdPeriph_Driver/src/stm32f4xx_spi.c **** void I2S_FullDuplexConfig(SPI_TypeDef* I2Sxext, I2S_InitTypeDef* I2S_InitStruct)
 701:../Libraries/STM32F4xx_StdPeriph_Driver/src/stm32f4xx_spi.c **** {
 996              		.loc 1 701 0
 997              		.cfi_startproc
 998              		@ args = 0, pretend = 0, frame = 16
 999              		@ frame_needed = 1, uses_anonymous_args = 0
 1000              		@ link register save eliminated.
 1001 0000 80B4     		push	{r7}
 1002              	.LCFI36:
 1003              		.cfi_def_cfa_offset 4
 1004              		.cfi_offset 7, -4
 1005 0002 85B0     		sub	sp, sp, #20
 1006              	.LCFI37:
 1007              		.cfi_def_cfa_offset 24
 1008 0004 00AF     		add	r7, sp, #0
 1009              	.LCFI38:
 1010              		.cfi_def_cfa_register 7
 1011 0006 7860     		str	r0, [r7, #4]
 1012 0008 3960     		str	r1, [r7, #0]
 702:../Libraries/STM32F4xx_StdPeriph_Driver/src/stm32f4xx_spi.c ****   uint16_t tmpreg = 0, tmp = 0;
 1013              		.loc 1 702 0
 1014 000a 4FF00003 		mov	r3, #0
 1015 000e BB81     		strh	r3, [r7, #12]	@ movhi
 1016 0010 4FF00003 		mov	r3, #0
 1017 0014 FB81     		strh	r3, [r7, #14]	@ movhi
 703:../Libraries/STM32F4xx_StdPeriph_Driver/src/stm32f4xx_spi.c ****   
 704:../Libraries/STM32F4xx_StdPeriph_Driver/src/stm32f4xx_spi.c ****   /* Check the I2S parameters */
 705:../Libraries/STM32F4xx_StdPeriph_Driver/src/stm32f4xx_spi.c ****   assert_param(IS_I2S_EXT_PERIPH(I2Sxext));
 706:../Libraries/STM32F4xx_StdPeriph_Driver/src/stm32f4xx_spi.c ****   assert_param(IS_I2S_MODE(I2S_InitStruct->I2S_Mode));
 707:../Libraries/STM32F4xx_StdPeriph_Driver/src/stm32f4xx_spi.c ****   assert_param(IS_I2S_STANDARD(I2S_InitStruct->I2S_Standard));
 708:../Libraries/STM32F4xx_StdPeriph_Driver/src/stm32f4xx_spi.c ****   assert_param(IS_I2S_DATA_FORMAT(I2S_InitStruct->I2S_DataFormat));
 709:../Libraries/STM32F4xx_StdPeriph_Driver/src/stm32f4xx_spi.c ****   assert_param(IS_I2S_CPOL(I2S_InitStruct->I2S_CPOL));  
 710:../Libraries/STM32F4xx_StdPeriph_Driver/src/stm32f4xx_spi.c **** 
 711:../Libraries/STM32F4xx_StdPeriph_Driver/src/stm32f4xx_spi.c **** /*----------------------- SPIx I2SCFGR & I2SPR Configuration -----------------*/
 712:../Libraries/STM32F4xx_StdPeriph_Driver/src/stm32f4xx_spi.c ****   /* Clear I2SMOD, I2SE, I2SCFG, PCMSYNC, I2SSTD, CKPOL, DATLEN and CHLEN bits */
 713:../Libraries/STM32F4xx_StdPeriph_Driver/src/stm32f4xx_spi.c ****   I2Sxext->I2SCFGR &= I2SCFGR_CLEAR_MASK; 
 1018              		.loc 1 713 0
 1019 0016 7B68     		ldr	r3, [r7, #4]
 1020 0018 9B8B     		ldrh	r3, [r3, #28]	@ movhi
 1021 001a 9BB2     		uxth	r3, r3
 1022 001c 23F47A63 		bic	r3, r3, #4000
 1023 0020 23F01F03 		bic	r3, r3, #31
 1024 0024 9AB2     		uxth	r2, r3
 1025 0026 7B68     		ldr	r3, [r7, #4]
 1026 0028 9A83     		strh	r2, [r3, #28]	@ movhi
 714:../Libraries/STM32F4xx_StdPeriph_Driver/src/stm32f4xx_spi.c ****   I2Sxext->I2SPR = 0x0002;
 1027              		.loc 1 714 0
 1028 002a 7B68     		ldr	r3, [r7, #4]
 1029 002c 4FF00202 		mov	r2, #2
 1030 0030 1A84     		strh	r2, [r3, #32]	@ movhi
 715:../Libraries/STM32F4xx_StdPeriph_Driver/src/stm32f4xx_spi.c ****   
 716:../Libraries/STM32F4xx_StdPeriph_Driver/src/stm32f4xx_spi.c ****   /* Get the I2SCFGR register value */
 717:../Libraries/STM32F4xx_StdPeriph_Driver/src/stm32f4xx_spi.c ****   tmpreg = I2Sxext->I2SCFGR;
 1031              		.loc 1 717 0
 1032 0032 7B68     		ldr	r3, [r7, #4]
 1033 0034 9B8B     		ldrh	r3, [r3, #28]	@ movhi
 1034 0036 BB81     		strh	r3, [r7, #12]	@ movhi
 718:../Libraries/STM32F4xx_StdPeriph_Driver/src/stm32f4xx_spi.c ****   
 719:../Libraries/STM32F4xx_StdPeriph_Driver/src/stm32f4xx_spi.c ****   /* Get the mode to be configured for the extended I2S */
 720:../Libraries/STM32F4xx_StdPeriph_Driver/src/stm32f4xx_spi.c ****   if ((I2S_InitStruct->I2S_Mode == I2S_Mode_MasterTx) || (I2S_InitStruct->I2S_Mode == I2S_Mode_Slav
 1035              		.loc 1 720 0
 1036 0038 3B68     		ldr	r3, [r7, #0]
 1037 003a 1B88     		ldrh	r3, [r3, #0]
 1038 003c B3F5007F 		cmp	r3, #512
 1039 0040 03D0     		beq	.L38
 1040              		.loc 1 720 0 is_stmt 0 discriminator 1
 1041 0042 3B68     		ldr	r3, [r7, #0]
 1042 0044 1B88     		ldrh	r3, [r3, #0]
 1043 0046 002B     		cmp	r3, #0
 1044 0048 03D1     		bne	.L39
 1045              	.L38:
 721:../Libraries/STM32F4xx_StdPeriph_Driver/src/stm32f4xx_spi.c ****   {
 722:../Libraries/STM32F4xx_StdPeriph_Driver/src/stm32f4xx_spi.c ****     tmp = I2S_Mode_SlaveRx;
 1046              		.loc 1 722 0 is_stmt 1
 1047 004a 4FF48073 		mov	r3, #256
 1048 004e FB81     		strh	r3, [r7, #14]	@ movhi
 1049 0050 0CE0     		b	.L40
 1050              	.L39:
 723:../Libraries/STM32F4xx_StdPeriph_Driver/src/stm32f4xx_spi.c ****   }
 724:../Libraries/STM32F4xx_StdPeriph_Driver/src/stm32f4xx_spi.c ****   else
 725:../Libraries/STM32F4xx_StdPeriph_Driver/src/stm32f4xx_spi.c ****   {
 726:../Libraries/STM32F4xx_StdPeriph_Driver/src/stm32f4xx_spi.c ****     if ((I2S_InitStruct->I2S_Mode == I2S_Mode_MasterRx) || (I2S_InitStruct->I2S_Mode == I2S_Mode_Sl
 1051              		.loc 1 726 0
 1052 0052 3B68     		ldr	r3, [r7, #0]
 1053 0054 1B88     		ldrh	r3, [r3, #0]
 1054 0056 B3F5407F 		cmp	r3, #768
 1055 005a 04D0     		beq	.L41
 1056              		.loc 1 726 0 is_stmt 0 discriminator 1
 1057 005c 3B68     		ldr	r3, [r7, #0]
 1058 005e 1B88     		ldrh	r3, [r3, #0]
 1059 0060 B3F5807F 		cmp	r3, #256
 1060 0064 02D1     		bne	.L40
 1061              	.L41:
 727:../Libraries/STM32F4xx_StdPeriph_Driver/src/stm32f4xx_spi.c ****     {
 728:../Libraries/STM32F4xx_StdPeriph_Driver/src/stm32f4xx_spi.c ****       tmp = I2S_Mode_SlaveTx;
 1062              		.loc 1 728 0 is_stmt 1
 1063 0066 4FF00003 		mov	r3, #0
 1064 006a FB81     		strh	r3, [r7, #14]	@ movhi
 1065              	.L40:
 729:../Libraries/STM32F4xx_StdPeriph_Driver/src/stm32f4xx_spi.c ****     }
 730:../Libraries/STM32F4xx_StdPeriph_Driver/src/stm32f4xx_spi.c ****   }
 731:../Libraries/STM32F4xx_StdPeriph_Driver/src/stm32f4xx_spi.c **** 
 732:../Libraries/STM32F4xx_StdPeriph_Driver/src/stm32f4xx_spi.c ****  
 733:../Libraries/STM32F4xx_StdPeriph_Driver/src/stm32f4xx_spi.c ****   /* Configure the I2S with the SPI_InitStruct values */
 734:../Libraries/STM32F4xx_StdPeriph_Driver/src/stm32f4xx_spi.c ****   tmpreg |= (uint16_t)((uint16_t)SPI_I2SCFGR_I2SMOD | (uint16_t)(tmp | \
 735:../Libraries/STM32F4xx_StdPeriph_Driver/src/stm32f4xx_spi.c ****                   (uint16_t)(I2S_InitStruct->I2S_Standard | (uint16_t)(I2S_InitStruct->I2S_DataForm
 1066              		.loc 1 735 0
 1067 006c 3B68     		ldr	r3, [r7, #0]
 1068 006e 5A88     		ldrh	r2, [r3, #2]
 1069 0070 3B68     		ldr	r3, [r7, #0]
 1070 0072 9988     		ldrh	r1, [r3, #4]
 736:../Libraries/STM32F4xx_StdPeriph_Driver/src/stm32f4xx_spi.c ****                   (uint16_t)I2S_InitStruct->I2S_CPOL))));
 1071              		.loc 1 736 0
 1072 0074 3B68     		ldr	r3, [r7, #0]
 1073 0076 9B89     		ldrh	r3, [r3, #12]
 735:../Libraries/STM32F4xx_StdPeriph_Driver/src/stm32f4xx_spi.c ****                   (uint16_t)(I2S_InitStruct->I2S_Standard | (uint16_t)(I2S_InitStruct->I2S_DataForm
 1074              		.loc 1 735 0
 1075 0078 0B43     		orrs	r3, r3, r1
 1076 007a 9BB2     		uxth	r3, r3
 1077 007c 1343     		orrs	r3, r3, r2
 1078 007e 9AB2     		uxth	r2, r3
 734:../Libraries/STM32F4xx_StdPeriph_Driver/src/stm32f4xx_spi.c ****   tmpreg |= (uint16_t)((uint16_t)SPI_I2SCFGR_I2SMOD | (uint16_t)(tmp | \
 1079              		.loc 1 734 0
 1080 0080 FB89     		ldrh	r3, [r7, #14]	@ movhi
 1081 0082 1343     		orrs	r3, r3, r2
 1082 0084 9AB2     		uxth	r2, r3
 1083 0086 BB89     		ldrh	r3, [r7, #12]	@ movhi
 1084 0088 1343     		orrs	r3, r3, r2
 1085 008a 9BB2     		uxth	r3, r3
 1086 008c 43F40063 		orr	r3, r3, #2048
 1087 0090 BB81     		strh	r3, [r7, #12]	@ movhi
 737:../Libraries/STM32F4xx_StdPeriph_Driver/src/stm32f4xx_spi.c ****  
 738:../Libraries/STM32F4xx_StdPeriph_Driver/src/stm32f4xx_spi.c ****   /* Write to SPIx I2SCFGR */  
 739:../Libraries/STM32F4xx_StdPeriph_Driver/src/stm32f4xx_spi.c ****   I2Sxext->I2SCFGR = tmpreg;
 1088              		.loc 1 739 0
 1089 0092 7B68     		ldr	r3, [r7, #4]
 1090 0094 BA89     		ldrh	r2, [r7, #12]	@ movhi
 1091 0096 9A83     		strh	r2, [r3, #28]	@ movhi
 740:../Libraries/STM32F4xx_StdPeriph_Driver/src/stm32f4xx_spi.c **** }
 1092              		.loc 1 740 0
 1093 0098 07F11407 		add	r7, r7, #20
 1094 009c BD46     		mov	sp, r7
 1095 009e 80BC     		pop	{r7}
 1096 00a0 7047     		bx	lr
 1097              		.cfi_endproc
 1098              	.LFE122:
 1100 00a2 00BF     		.section	.text.SPI_I2S_ReceiveData,"ax",%progbits
 1101              		.align	2
 1102              		.global	SPI_I2S_ReceiveData
 1103              		.thumb
 1104              		.thumb_func
 1106              	SPI_I2S_ReceiveData:
 1107              	.LFB123:
 741:../Libraries/STM32F4xx_StdPeriph_Driver/src/stm32f4xx_spi.c **** 
 742:../Libraries/STM32F4xx_StdPeriph_Driver/src/stm32f4xx_spi.c **** /**
 743:../Libraries/STM32F4xx_StdPeriph_Driver/src/stm32f4xx_spi.c ****   * @}
 744:../Libraries/STM32F4xx_StdPeriph_Driver/src/stm32f4xx_spi.c ****   */
 745:../Libraries/STM32F4xx_StdPeriph_Driver/src/stm32f4xx_spi.c **** 
 746:../Libraries/STM32F4xx_StdPeriph_Driver/src/stm32f4xx_spi.c **** /** @defgroup SPI_Group2 Data transfers functions
 747:../Libraries/STM32F4xx_StdPeriph_Driver/src/stm32f4xx_spi.c ****  *  @brief   Data transfers functions
 748:../Libraries/STM32F4xx_StdPeriph_Driver/src/stm32f4xx_spi.c ****  *
 749:../Libraries/STM32F4xx_StdPeriph_Driver/src/stm32f4xx_spi.c **** @verbatim   
 750:../Libraries/STM32F4xx_StdPeriph_Driver/src/stm32f4xx_spi.c ****  ===============================================================================
 751:../Libraries/STM32F4xx_StdPeriph_Driver/src/stm32f4xx_spi.c ****                          Data transfers functions
 752:../Libraries/STM32F4xx_StdPeriph_Driver/src/stm32f4xx_spi.c ****  ===============================================================================  
 753:../Libraries/STM32F4xx_StdPeriph_Driver/src/stm32f4xx_spi.c **** 
 754:../Libraries/STM32F4xx_StdPeriph_Driver/src/stm32f4xx_spi.c ****   This section provides a set of functions allowing to manage the SPI data transfers
 755:../Libraries/STM32F4xx_StdPeriph_Driver/src/stm32f4xx_spi.c ****   
 756:../Libraries/STM32F4xx_StdPeriph_Driver/src/stm32f4xx_spi.c ****   In reception, data are received and then stored into an internal Rx buffer while 
 757:../Libraries/STM32F4xx_StdPeriph_Driver/src/stm32f4xx_spi.c ****   In transmission, data are first stored into an internal Tx buffer before being 
 758:../Libraries/STM32F4xx_StdPeriph_Driver/src/stm32f4xx_spi.c ****   transmitted.
 759:../Libraries/STM32F4xx_StdPeriph_Driver/src/stm32f4xx_spi.c **** 
 760:../Libraries/STM32F4xx_StdPeriph_Driver/src/stm32f4xx_spi.c ****   The read access of the SPI_DR register can be done using the SPI_I2S_ReceiveData()
 761:../Libraries/STM32F4xx_StdPeriph_Driver/src/stm32f4xx_spi.c ****   function and returns the Rx buffered value. Whereas a write access to the SPI_DR 
 762:../Libraries/STM32F4xx_StdPeriph_Driver/src/stm32f4xx_spi.c ****   can be done using SPI_I2S_SendData() function and stores the written data into 
 763:../Libraries/STM32F4xx_StdPeriph_Driver/src/stm32f4xx_spi.c ****   Tx buffer.
 764:../Libraries/STM32F4xx_StdPeriph_Driver/src/stm32f4xx_spi.c **** 
 765:../Libraries/STM32F4xx_StdPeriph_Driver/src/stm32f4xx_spi.c **** @endverbatim
 766:../Libraries/STM32F4xx_StdPeriph_Driver/src/stm32f4xx_spi.c ****   * @{
 767:../Libraries/STM32F4xx_StdPeriph_Driver/src/stm32f4xx_spi.c ****   */
 768:../Libraries/STM32F4xx_StdPeriph_Driver/src/stm32f4xx_spi.c **** 
 769:../Libraries/STM32F4xx_StdPeriph_Driver/src/stm32f4xx_spi.c **** /**
 770:../Libraries/STM32F4xx_StdPeriph_Driver/src/stm32f4xx_spi.c ****   * @brief  Returns the most recent received data by the SPIx/I2Sx peripheral. 
 771:../Libraries/STM32F4xx_StdPeriph_Driver/src/stm32f4xx_spi.c ****   * @param  SPIx: To select the SPIx/I2Sx peripheral, where x can be: 1, 2 or 3 
 772:../Libraries/STM32F4xx_StdPeriph_Driver/src/stm32f4xx_spi.c ****   *         in SPI mode or 2 or 3 in I2S mode or I2Sxext for I2S full duplex mode. 
 773:../Libraries/STM32F4xx_StdPeriph_Driver/src/stm32f4xx_spi.c ****   * @retval The value of the received data.
 774:../Libraries/STM32F4xx_StdPeriph_Driver/src/stm32f4xx_spi.c ****   */
 775:../Libraries/STM32F4xx_StdPeriph_Driver/src/stm32f4xx_spi.c **** uint16_t SPI_I2S_ReceiveData(SPI_TypeDef* SPIx)
 776:../Libraries/STM32F4xx_StdPeriph_Driver/src/stm32f4xx_spi.c **** {
 1108              		.loc 1 776 0
 1109              		.cfi_startproc
 1110              		@ args = 0, pretend = 0, frame = 8
 1111              		@ frame_needed = 1, uses_anonymous_args = 0
 1112              		@ link register save eliminated.
 1113 0000 80B4     		push	{r7}
 1114              	.LCFI39:
 1115              		.cfi_def_cfa_offset 4
 1116              		.cfi_offset 7, -4
 1117 0002 83B0     		sub	sp, sp, #12
 1118              	.LCFI40:
 1119              		.cfi_def_cfa_offset 16
 1120 0004 00AF     		add	r7, sp, #0
 1121              	.LCFI41:
 1122              		.cfi_def_cfa_register 7
 1123 0006 7860     		str	r0, [r7, #4]
 777:../Libraries/STM32F4xx_StdPeriph_Driver/src/stm32f4xx_spi.c ****   /* Check the parameters */
 778:../Libraries/STM32F4xx_StdPeriph_Driver/src/stm32f4xx_spi.c ****   assert_param(IS_SPI_ALL_PERIPH_EXT(SPIx));
 779:../Libraries/STM32F4xx_StdPeriph_Driver/src/stm32f4xx_spi.c ****   
 780:../Libraries/STM32F4xx_StdPeriph_Driver/src/stm32f4xx_spi.c ****   /* Return the data in the DR register */
 781:../Libraries/STM32F4xx_StdPeriph_Driver/src/stm32f4xx_spi.c ****   return SPIx->DR;
 1124              		.loc 1 781 0
 1125 0008 7B68     		ldr	r3, [r7, #4]
 1126 000a 9B89     		ldrh	r3, [r3, #12]	@ movhi
 1127 000c 9BB2     		uxth	r3, r3
 782:../Libraries/STM32F4xx_StdPeriph_Driver/src/stm32f4xx_spi.c **** }
 1128              		.loc 1 782 0
 1129 000e 1846     		mov	r0, r3
 1130 0010 07F10C07 		add	r7, r7, #12
 1131 0014 BD46     		mov	sp, r7
 1132 0016 80BC     		pop	{r7}
 1133 0018 7047     		bx	lr
 1134              		.cfi_endproc
 1135              	.LFE123:
 1137 001a 00BF     		.section	.text.SPI_I2S_SendData,"ax",%progbits
 1138              		.align	2
 1139              		.global	SPI_I2S_SendData
 1140              		.thumb
 1141              		.thumb_func
 1143              	SPI_I2S_SendData:
 1144              	.LFB124:
 783:../Libraries/STM32F4xx_StdPeriph_Driver/src/stm32f4xx_spi.c **** 
 784:../Libraries/STM32F4xx_StdPeriph_Driver/src/stm32f4xx_spi.c **** /**
 785:../Libraries/STM32F4xx_StdPeriph_Driver/src/stm32f4xx_spi.c ****   * @brief  Transmits a Data through the SPIx/I2Sx peripheral.
 786:../Libraries/STM32F4xx_StdPeriph_Driver/src/stm32f4xx_spi.c ****   * @param  SPIx: To select the SPIx/I2Sx peripheral, where x can be: 1, 2 or 3 
 787:../Libraries/STM32F4xx_StdPeriph_Driver/src/stm32f4xx_spi.c ****   *         in SPI mode or 2 or 3 in I2S mode or I2Sxext for I2S full duplex mode.     
 788:../Libraries/STM32F4xx_StdPeriph_Driver/src/stm32f4xx_spi.c ****   * @param  Data: Data to be transmitted.
 789:../Libraries/STM32F4xx_StdPeriph_Driver/src/stm32f4xx_spi.c ****   * @retval None
 790:../Libraries/STM32F4xx_StdPeriph_Driver/src/stm32f4xx_spi.c ****   */
 791:../Libraries/STM32F4xx_StdPeriph_Driver/src/stm32f4xx_spi.c **** void SPI_I2S_SendData(SPI_TypeDef* SPIx, uint16_t Data)
 792:../Libraries/STM32F4xx_StdPeriph_Driver/src/stm32f4xx_spi.c **** {
 1145              		.loc 1 792 0
 1146              		.cfi_startproc
 1147              		@ args = 0, pretend = 0, frame = 8
 1148              		@ frame_needed = 1, uses_anonymous_args = 0
 1149              		@ link register save eliminated.
 1150 0000 80B4     		push	{r7}
 1151              	.LCFI42:
 1152              		.cfi_def_cfa_offset 4
 1153              		.cfi_offset 7, -4
 1154 0002 83B0     		sub	sp, sp, #12
 1155              	.LCFI43:
 1156              		.cfi_def_cfa_offset 16
 1157 0004 00AF     		add	r7, sp, #0
 1158              	.LCFI44:
 1159              		.cfi_def_cfa_register 7
 1160 0006 7860     		str	r0, [r7, #4]
 1161 0008 0B46     		mov	r3, r1
 1162 000a 7B80     		strh	r3, [r7, #2]	@ movhi
 793:../Libraries/STM32F4xx_StdPeriph_Driver/src/stm32f4xx_spi.c ****   /* Check the parameters */
 794:../Libraries/STM32F4xx_StdPeriph_Driver/src/stm32f4xx_spi.c ****   assert_param(IS_SPI_ALL_PERIPH_EXT(SPIx));
 795:../Libraries/STM32F4xx_StdPeriph_Driver/src/stm32f4xx_spi.c ****   
 796:../Libraries/STM32F4xx_StdPeriph_Driver/src/stm32f4xx_spi.c ****   /* Write in the DR register the data to be sent */
 797:../Libraries/STM32F4xx_StdPeriph_Driver/src/stm32f4xx_spi.c ****   SPIx->DR = Data;
 1163              		.loc 1 797 0
 1164 000c 7B68     		ldr	r3, [r7, #4]
 1165 000e 7A88     		ldrh	r2, [r7, #2]	@ movhi
 1166 0010 9A81     		strh	r2, [r3, #12]	@ movhi
 798:../Libraries/STM32F4xx_StdPeriph_Driver/src/stm32f4xx_spi.c **** }
 1167              		.loc 1 798 0
 1168 0012 07F10C07 		add	r7, r7, #12
 1169 0016 BD46     		mov	sp, r7
 1170 0018 80BC     		pop	{r7}
 1171 001a 7047     		bx	lr
 1172              		.cfi_endproc
 1173              	.LFE124:
 1175              		.section	.text.SPI_CalculateCRC,"ax",%progbits
 1176              		.align	2
 1177              		.global	SPI_CalculateCRC
 1178              		.thumb
 1179              		.thumb_func
 1181              	SPI_CalculateCRC:
 1182              	.LFB125:
 799:../Libraries/STM32F4xx_StdPeriph_Driver/src/stm32f4xx_spi.c **** 
 800:../Libraries/STM32F4xx_StdPeriph_Driver/src/stm32f4xx_spi.c **** /**
 801:../Libraries/STM32F4xx_StdPeriph_Driver/src/stm32f4xx_spi.c ****   * @}
 802:../Libraries/STM32F4xx_StdPeriph_Driver/src/stm32f4xx_spi.c ****   */
 803:../Libraries/STM32F4xx_StdPeriph_Driver/src/stm32f4xx_spi.c **** 
 804:../Libraries/STM32F4xx_StdPeriph_Driver/src/stm32f4xx_spi.c **** /** @defgroup SPI_Group3 Hardware CRC Calculation functions
 805:../Libraries/STM32F4xx_StdPeriph_Driver/src/stm32f4xx_spi.c ****  *  @brief   Hardware CRC Calculation functions
 806:../Libraries/STM32F4xx_StdPeriph_Driver/src/stm32f4xx_spi.c ****  *
 807:../Libraries/STM32F4xx_StdPeriph_Driver/src/stm32f4xx_spi.c **** @verbatim   
 808:../Libraries/STM32F4xx_StdPeriph_Driver/src/stm32f4xx_spi.c ****  ===============================================================================
 809:../Libraries/STM32F4xx_StdPeriph_Driver/src/stm32f4xx_spi.c ****                          Hardware CRC Calculation functions
 810:../Libraries/STM32F4xx_StdPeriph_Driver/src/stm32f4xx_spi.c ****  ===============================================================================  
 811:../Libraries/STM32F4xx_StdPeriph_Driver/src/stm32f4xx_spi.c **** 
 812:../Libraries/STM32F4xx_StdPeriph_Driver/src/stm32f4xx_spi.c ****   This section provides a set of functions allowing to manage the SPI CRC hardware 
 813:../Libraries/STM32F4xx_StdPeriph_Driver/src/stm32f4xx_spi.c ****   calculation
 814:../Libraries/STM32F4xx_StdPeriph_Driver/src/stm32f4xx_spi.c **** 
 815:../Libraries/STM32F4xx_StdPeriph_Driver/src/stm32f4xx_spi.c ****   SPI communication using CRC is possible through the following procedure:
 816:../Libraries/STM32F4xx_StdPeriph_Driver/src/stm32f4xx_spi.c ****      1. Program the Data direction, Polarity, Phase, First Data, Baud Rate Prescaler, 
 817:../Libraries/STM32F4xx_StdPeriph_Driver/src/stm32f4xx_spi.c ****         Slave Management, Peripheral Mode and CRC Polynomial values using the SPI_Init()
 818:../Libraries/STM32F4xx_StdPeriph_Driver/src/stm32f4xx_spi.c ****         function.
 819:../Libraries/STM32F4xx_StdPeriph_Driver/src/stm32f4xx_spi.c ****      2. Enable the CRC calculation using the SPI_CalculateCRC() function.
 820:../Libraries/STM32F4xx_StdPeriph_Driver/src/stm32f4xx_spi.c ****      3. Enable the SPI using the SPI_Cmd() function
 821:../Libraries/STM32F4xx_StdPeriph_Driver/src/stm32f4xx_spi.c ****      4. Before writing the last data to the TX buffer, set the CRCNext bit using the 
 822:../Libraries/STM32F4xx_StdPeriph_Driver/src/stm32f4xx_spi.c ****       SPI_TransmitCRC() function to indicate that after transmission of the last 
 823:../Libraries/STM32F4xx_StdPeriph_Driver/src/stm32f4xx_spi.c ****       data, the CRC should be transmitted.
 824:../Libraries/STM32F4xx_StdPeriph_Driver/src/stm32f4xx_spi.c ****      5. After transmitting the last data, the SPI transmits the CRC. The SPI_CR1_CRCNEXT
 825:../Libraries/STM32F4xx_StdPeriph_Driver/src/stm32f4xx_spi.c ****         bit is reset. The CRC is also received and compared against the SPI_RXCRCR 
 826:../Libraries/STM32F4xx_StdPeriph_Driver/src/stm32f4xx_spi.c ****         value. 
 827:../Libraries/STM32F4xx_StdPeriph_Driver/src/stm32f4xx_spi.c ****         If the value does not match, the SPI_FLAG_CRCERR flag is set and an interrupt
 828:../Libraries/STM32F4xx_StdPeriph_Driver/src/stm32f4xx_spi.c ****         can be generated when the SPI_I2S_IT_ERR interrupt is enabled.
 829:../Libraries/STM32F4xx_StdPeriph_Driver/src/stm32f4xx_spi.c **** 
 830:../Libraries/STM32F4xx_StdPeriph_Driver/src/stm32f4xx_spi.c **** @note It is advised not to read the calculated CRC values during the communication.
 831:../Libraries/STM32F4xx_StdPeriph_Driver/src/stm32f4xx_spi.c **** 
 832:../Libraries/STM32F4xx_StdPeriph_Driver/src/stm32f4xx_spi.c **** @note When the SPI is in slave mode, be careful to enable CRC calculation only 
 833:../Libraries/STM32F4xx_StdPeriph_Driver/src/stm32f4xx_spi.c ****       when the clock is stable, that is, when the clock is in the steady state. 
 834:../Libraries/STM32F4xx_StdPeriph_Driver/src/stm32f4xx_spi.c ****       If not, a wrong CRC calculation may be done. In fact, the CRC is sensitive 
 835:../Libraries/STM32F4xx_StdPeriph_Driver/src/stm32f4xx_spi.c ****       to the SCK slave input clock as soon as CRCEN is set, and this, whatever 
 836:../Libraries/STM32F4xx_StdPeriph_Driver/src/stm32f4xx_spi.c ****       the value of the SPE bit.
 837:../Libraries/STM32F4xx_StdPeriph_Driver/src/stm32f4xx_spi.c **** 
 838:../Libraries/STM32F4xx_StdPeriph_Driver/src/stm32f4xx_spi.c **** @note With high bitrate frequencies, be careful when transmitting the CRC.
 839:../Libraries/STM32F4xx_StdPeriph_Driver/src/stm32f4xx_spi.c ****       As the number of used CPU cycles has to be as low as possible in the CRC 
 840:../Libraries/STM32F4xx_StdPeriph_Driver/src/stm32f4xx_spi.c ****       transfer phase, it is forbidden to call software functions in the CRC 
 841:../Libraries/STM32F4xx_StdPeriph_Driver/src/stm32f4xx_spi.c ****       transmission sequence to avoid errors in the last data and CRC reception. 
 842:../Libraries/STM32F4xx_StdPeriph_Driver/src/stm32f4xx_spi.c ****       In fact, CRCNEXT bit has to be written before the end of the transmission/reception 
 843:../Libraries/STM32F4xx_StdPeriph_Driver/src/stm32f4xx_spi.c ****       of the last data.
 844:../Libraries/STM32F4xx_StdPeriph_Driver/src/stm32f4xx_spi.c **** 
 845:../Libraries/STM32F4xx_StdPeriph_Driver/src/stm32f4xx_spi.c **** @note For high bit rate frequencies, it is advised to use the DMA mode to avoid the
 846:../Libraries/STM32F4xx_StdPeriph_Driver/src/stm32f4xx_spi.c ****       degradation of the SPI speed performance due to CPU accesses impacting the 
 847:../Libraries/STM32F4xx_StdPeriph_Driver/src/stm32f4xx_spi.c ****       SPI bandwidth.
 848:../Libraries/STM32F4xx_StdPeriph_Driver/src/stm32f4xx_spi.c **** 
 849:../Libraries/STM32F4xx_StdPeriph_Driver/src/stm32f4xx_spi.c **** @note When the STM32F4xx is configured as slave and the NSS hardware mode is 
 850:../Libraries/STM32F4xx_StdPeriph_Driver/src/stm32f4xx_spi.c ****       used, the NSS pin needs to be kept low between the data phase and the CRC 
 851:../Libraries/STM32F4xx_StdPeriph_Driver/src/stm32f4xx_spi.c ****       phase.
 852:../Libraries/STM32F4xx_StdPeriph_Driver/src/stm32f4xx_spi.c **** 
 853:../Libraries/STM32F4xx_StdPeriph_Driver/src/stm32f4xx_spi.c **** @note When the SPI is configured in slave mode with the CRC feature enabled, CRC
 854:../Libraries/STM32F4xx_StdPeriph_Driver/src/stm32f4xx_spi.c ****       calculation takes place even if a high level is applied on the NSS pin. 
 855:../Libraries/STM32F4xx_StdPeriph_Driver/src/stm32f4xx_spi.c ****       This may happen for example in case of a multi-slave environment where the 
 856:../Libraries/STM32F4xx_StdPeriph_Driver/src/stm32f4xx_spi.c ****       communication master addresses slaves alternately.
 857:../Libraries/STM32F4xx_StdPeriph_Driver/src/stm32f4xx_spi.c **** 
 858:../Libraries/STM32F4xx_StdPeriph_Driver/src/stm32f4xx_spi.c **** @note Between a slave de-selection (high level on NSS) and a new slave selection 
 859:../Libraries/STM32F4xx_StdPeriph_Driver/src/stm32f4xx_spi.c ****       (low level on NSS), the CRC value should be cleared on both master and slave
 860:../Libraries/STM32F4xx_StdPeriph_Driver/src/stm32f4xx_spi.c ****       sides in order to resynchronize the master and slave for their respective 
 861:../Libraries/STM32F4xx_StdPeriph_Driver/src/stm32f4xx_spi.c ****       CRC calculation.
 862:../Libraries/STM32F4xx_StdPeriph_Driver/src/stm32f4xx_spi.c **** 
 863:../Libraries/STM32F4xx_StdPeriph_Driver/src/stm32f4xx_spi.c **** @note To clear the CRC, follow the procedure below:
 864:../Libraries/STM32F4xx_StdPeriph_Driver/src/stm32f4xx_spi.c ****         1. Disable SPI using the SPI_Cmd() function
 865:../Libraries/STM32F4xx_StdPeriph_Driver/src/stm32f4xx_spi.c ****         2. Disable the CRC calculation using the SPI_CalculateCRC() function.
 866:../Libraries/STM32F4xx_StdPeriph_Driver/src/stm32f4xx_spi.c ****         3. Enable the CRC calculation using the SPI_CalculateCRC() function.
 867:../Libraries/STM32F4xx_StdPeriph_Driver/src/stm32f4xx_spi.c ****         4. Enable SPI using the SPI_Cmd() function.
 868:../Libraries/STM32F4xx_StdPeriph_Driver/src/stm32f4xx_spi.c **** 
 869:../Libraries/STM32F4xx_StdPeriph_Driver/src/stm32f4xx_spi.c **** @endverbatim
 870:../Libraries/STM32F4xx_StdPeriph_Driver/src/stm32f4xx_spi.c ****   * @{
 871:../Libraries/STM32F4xx_StdPeriph_Driver/src/stm32f4xx_spi.c ****   */
 872:../Libraries/STM32F4xx_StdPeriph_Driver/src/stm32f4xx_spi.c **** 
 873:../Libraries/STM32F4xx_StdPeriph_Driver/src/stm32f4xx_spi.c **** /**
 874:../Libraries/STM32F4xx_StdPeriph_Driver/src/stm32f4xx_spi.c ****   * @brief  Enables or disables the CRC value calculation of the transferred bytes.
 875:../Libraries/STM32F4xx_StdPeriph_Driver/src/stm32f4xx_spi.c ****   * @param  SPIx: where x can be 1, 2 or 3 to select the SPI peripheral.
 876:../Libraries/STM32F4xx_StdPeriph_Driver/src/stm32f4xx_spi.c ****   * @param  NewState: new state of the SPIx CRC value calculation.
 877:../Libraries/STM32F4xx_StdPeriph_Driver/src/stm32f4xx_spi.c ****   *          This parameter can be: ENABLE or DISABLE.
 878:../Libraries/STM32F4xx_StdPeriph_Driver/src/stm32f4xx_spi.c ****   * @retval None
 879:../Libraries/STM32F4xx_StdPeriph_Driver/src/stm32f4xx_spi.c ****   */
 880:../Libraries/STM32F4xx_StdPeriph_Driver/src/stm32f4xx_spi.c **** void SPI_CalculateCRC(SPI_TypeDef* SPIx, FunctionalState NewState)
 881:../Libraries/STM32F4xx_StdPeriph_Driver/src/stm32f4xx_spi.c **** {
 1183              		.loc 1 881 0
 1184              		.cfi_startproc
 1185              		@ args = 0, pretend = 0, frame = 8
 1186              		@ frame_needed = 1, uses_anonymous_args = 0
 1187              		@ link register save eliminated.
 1188 0000 80B4     		push	{r7}
 1189              	.LCFI45:
 1190              		.cfi_def_cfa_offset 4
 1191              		.cfi_offset 7, -4
 1192 0002 83B0     		sub	sp, sp, #12
 1193              	.LCFI46:
 1194              		.cfi_def_cfa_offset 16
 1195 0004 00AF     		add	r7, sp, #0
 1196              	.LCFI47:
 1197              		.cfi_def_cfa_register 7
 1198 0006 7860     		str	r0, [r7, #4]
 1199 0008 0B46     		mov	r3, r1
 1200 000a FB70     		strb	r3, [r7, #3]
 882:../Libraries/STM32F4xx_StdPeriph_Driver/src/stm32f4xx_spi.c ****   /* Check the parameters */
 883:../Libraries/STM32F4xx_StdPeriph_Driver/src/stm32f4xx_spi.c ****   assert_param(IS_SPI_ALL_PERIPH(SPIx));
 884:../Libraries/STM32F4xx_StdPeriph_Driver/src/stm32f4xx_spi.c ****   assert_param(IS_FUNCTIONAL_STATE(NewState));
 885:../Libraries/STM32F4xx_StdPeriph_Driver/src/stm32f4xx_spi.c ****   if (NewState != DISABLE)
 1201              		.loc 1 885 0
 1202 000c FB78     		ldrb	r3, [r7, #3]	@ zero_extendqisi2
 1203 000e 002B     		cmp	r3, #0
 1204 0010 08D0     		beq	.L45
 886:../Libraries/STM32F4xx_StdPeriph_Driver/src/stm32f4xx_spi.c ****   {
 887:../Libraries/STM32F4xx_StdPeriph_Driver/src/stm32f4xx_spi.c ****     /* Enable the selected SPI CRC calculation */
 888:../Libraries/STM32F4xx_StdPeriph_Driver/src/stm32f4xx_spi.c ****     SPIx->CR1 |= SPI_CR1_CRCEN;
 1205              		.loc 1 888 0
 1206 0012 7B68     		ldr	r3, [r7, #4]
 1207 0014 1B88     		ldrh	r3, [r3, #0]	@ movhi
 1208 0016 9BB2     		uxth	r3, r3
 1209 0018 43F40053 		orr	r3, r3, #8192
 1210 001c 9AB2     		uxth	r2, r3
 1211 001e 7B68     		ldr	r3, [r7, #4]
 1212 0020 1A80     		strh	r2, [r3, #0]	@ movhi
 1213 0022 07E0     		b	.L44
 1214              	.L45:
 889:../Libraries/STM32F4xx_StdPeriph_Driver/src/stm32f4xx_spi.c ****   }
 890:../Libraries/STM32F4xx_StdPeriph_Driver/src/stm32f4xx_spi.c ****   else
 891:../Libraries/STM32F4xx_StdPeriph_Driver/src/stm32f4xx_spi.c ****   {
 892:../Libraries/STM32F4xx_StdPeriph_Driver/src/stm32f4xx_spi.c ****     /* Disable the selected SPI CRC calculation */
 893:../Libraries/STM32F4xx_StdPeriph_Driver/src/stm32f4xx_spi.c ****     SPIx->CR1 &= (uint16_t)~((uint16_t)SPI_CR1_CRCEN);
 1215              		.loc 1 893 0
 1216 0024 7B68     		ldr	r3, [r7, #4]
 1217 0026 1B88     		ldrh	r3, [r3, #0]	@ movhi
 1218 0028 9BB2     		uxth	r3, r3
 1219 002a 23F40053 		bic	r3, r3, #8192
 1220 002e 9AB2     		uxth	r2, r3
 1221 0030 7B68     		ldr	r3, [r7, #4]
 1222 0032 1A80     		strh	r2, [r3, #0]	@ movhi
 1223              	.L44:
 894:../Libraries/STM32F4xx_StdPeriph_Driver/src/stm32f4xx_spi.c ****   }
 895:../Libraries/STM32F4xx_StdPeriph_Driver/src/stm32f4xx_spi.c **** }
 1224              		.loc 1 895 0
 1225 0034 07F10C07 		add	r7, r7, #12
 1226 0038 BD46     		mov	sp, r7
 1227 003a 80BC     		pop	{r7}
 1228 003c 7047     		bx	lr
 1229              		.cfi_endproc
 1230              	.LFE125:
 1232 003e 00BF     		.section	.text.SPI_TransmitCRC,"ax",%progbits
 1233              		.align	2
 1234              		.global	SPI_TransmitCRC
 1235              		.thumb
 1236              		.thumb_func
 1238              	SPI_TransmitCRC:
 1239              	.LFB126:
 896:../Libraries/STM32F4xx_StdPeriph_Driver/src/stm32f4xx_spi.c **** 
 897:../Libraries/STM32F4xx_StdPeriph_Driver/src/stm32f4xx_spi.c **** /**
 898:../Libraries/STM32F4xx_StdPeriph_Driver/src/stm32f4xx_spi.c ****   * @brief  Transmit the SPIx CRC value.
 899:../Libraries/STM32F4xx_StdPeriph_Driver/src/stm32f4xx_spi.c ****   * @param  SPIx: where x can be 1, 2 or 3 to select the SPI peripheral.
 900:../Libraries/STM32F4xx_StdPeriph_Driver/src/stm32f4xx_spi.c ****   * @retval None
 901:../Libraries/STM32F4xx_StdPeriph_Driver/src/stm32f4xx_spi.c ****   */
 902:../Libraries/STM32F4xx_StdPeriph_Driver/src/stm32f4xx_spi.c **** void SPI_TransmitCRC(SPI_TypeDef* SPIx)
 903:../Libraries/STM32F4xx_StdPeriph_Driver/src/stm32f4xx_spi.c **** {
 1240              		.loc 1 903 0
 1241              		.cfi_startproc
 1242              		@ args = 0, pretend = 0, frame = 8
 1243              		@ frame_needed = 1, uses_anonymous_args = 0
 1244              		@ link register save eliminated.
 1245 0000 80B4     		push	{r7}
 1246              	.LCFI48:
 1247              		.cfi_def_cfa_offset 4
 1248              		.cfi_offset 7, -4
 1249 0002 83B0     		sub	sp, sp, #12
 1250              	.LCFI49:
 1251              		.cfi_def_cfa_offset 16
 1252 0004 00AF     		add	r7, sp, #0
 1253              	.LCFI50:
 1254              		.cfi_def_cfa_register 7
 1255 0006 7860     		str	r0, [r7, #4]
 904:../Libraries/STM32F4xx_StdPeriph_Driver/src/stm32f4xx_spi.c ****   /* Check the parameters */
 905:../Libraries/STM32F4xx_StdPeriph_Driver/src/stm32f4xx_spi.c ****   assert_param(IS_SPI_ALL_PERIPH(SPIx));
 906:../Libraries/STM32F4xx_StdPeriph_Driver/src/stm32f4xx_spi.c ****   
 907:../Libraries/STM32F4xx_StdPeriph_Driver/src/stm32f4xx_spi.c ****   /* Enable the selected SPI CRC transmission */
 908:../Libraries/STM32F4xx_StdPeriph_Driver/src/stm32f4xx_spi.c ****   SPIx->CR1 |= SPI_CR1_CRCNEXT;
 1256              		.loc 1 908 0
 1257 0008 7B68     		ldr	r3, [r7, #4]
 1258 000a 1B88     		ldrh	r3, [r3, #0]	@ movhi
 1259 000c 9BB2     		uxth	r3, r3
 1260 000e 43F48053 		orr	r3, r3, #4096
 1261 0012 9AB2     		uxth	r2, r3
 1262 0014 7B68     		ldr	r3, [r7, #4]
 1263 0016 1A80     		strh	r2, [r3, #0]	@ movhi
 909:../Libraries/STM32F4xx_StdPeriph_Driver/src/stm32f4xx_spi.c **** }
 1264              		.loc 1 909 0
 1265 0018 07F10C07 		add	r7, r7, #12
 1266 001c BD46     		mov	sp, r7
 1267 001e 80BC     		pop	{r7}
 1268 0020 7047     		bx	lr
 1269              		.cfi_endproc
 1270              	.LFE126:
 1272 0022 00BF     		.section	.text.SPI_GetCRC,"ax",%progbits
 1273              		.align	2
 1274              		.global	SPI_GetCRC
 1275              		.thumb
 1276              		.thumb_func
 1278              	SPI_GetCRC:
 1279              	.LFB127:
 910:../Libraries/STM32F4xx_StdPeriph_Driver/src/stm32f4xx_spi.c **** 
 911:../Libraries/STM32F4xx_StdPeriph_Driver/src/stm32f4xx_spi.c **** /**
 912:../Libraries/STM32F4xx_StdPeriph_Driver/src/stm32f4xx_spi.c ****   * @brief  Returns the transmit or the receive CRC register value for the specified SPI.
 913:../Libraries/STM32F4xx_StdPeriph_Driver/src/stm32f4xx_spi.c ****   * @param  SPIx: where x can be 1, 2 or 3 to select the SPI peripheral.
 914:../Libraries/STM32F4xx_StdPeriph_Driver/src/stm32f4xx_spi.c ****   * @param  SPI_CRC: specifies the CRC register to be read.
 915:../Libraries/STM32F4xx_StdPeriph_Driver/src/stm32f4xx_spi.c ****   *          This parameter can be one of the following values:
 916:../Libraries/STM32F4xx_StdPeriph_Driver/src/stm32f4xx_spi.c ****   *            @arg SPI_CRC_Tx: Selects Tx CRC register
 917:../Libraries/STM32F4xx_StdPeriph_Driver/src/stm32f4xx_spi.c ****   *            @arg SPI_CRC_Rx: Selects Rx CRC register
 918:../Libraries/STM32F4xx_StdPeriph_Driver/src/stm32f4xx_spi.c ****   * @retval The selected CRC register value..
 919:../Libraries/STM32F4xx_StdPeriph_Driver/src/stm32f4xx_spi.c ****   */
 920:../Libraries/STM32F4xx_StdPeriph_Driver/src/stm32f4xx_spi.c **** uint16_t SPI_GetCRC(SPI_TypeDef* SPIx, uint8_t SPI_CRC)
 921:../Libraries/STM32F4xx_StdPeriph_Driver/src/stm32f4xx_spi.c **** {
 1280              		.loc 1 921 0
 1281              		.cfi_startproc
 1282              		@ args = 0, pretend = 0, frame = 16
 1283              		@ frame_needed = 1, uses_anonymous_args = 0
 1284              		@ link register save eliminated.
 1285 0000 80B4     		push	{r7}
 1286              	.LCFI51:
 1287              		.cfi_def_cfa_offset 4
 1288              		.cfi_offset 7, -4
 1289 0002 85B0     		sub	sp, sp, #20
 1290              	.LCFI52:
 1291              		.cfi_def_cfa_offset 24
 1292 0004 00AF     		add	r7, sp, #0
 1293              	.LCFI53:
 1294              		.cfi_def_cfa_register 7
 1295 0006 7860     		str	r0, [r7, #4]
 1296 0008 0B46     		mov	r3, r1
 1297 000a FB70     		strb	r3, [r7, #3]
 922:../Libraries/STM32F4xx_StdPeriph_Driver/src/stm32f4xx_spi.c ****   uint16_t crcreg = 0;
 1298              		.loc 1 922 0
 1299 000c 4FF00003 		mov	r3, #0
 1300 0010 FB81     		strh	r3, [r7, #14]	@ movhi
 923:../Libraries/STM32F4xx_StdPeriph_Driver/src/stm32f4xx_spi.c ****   /* Check the parameters */
 924:../Libraries/STM32F4xx_StdPeriph_Driver/src/stm32f4xx_spi.c ****   assert_param(IS_SPI_ALL_PERIPH(SPIx));
 925:../Libraries/STM32F4xx_StdPeriph_Driver/src/stm32f4xx_spi.c ****   assert_param(IS_SPI_CRC(SPI_CRC));
 926:../Libraries/STM32F4xx_StdPeriph_Driver/src/stm32f4xx_spi.c ****   if (SPI_CRC != SPI_CRC_Rx)
 1301              		.loc 1 926 0
 1302 0012 FB78     		ldrb	r3, [r7, #3]	@ zero_extendqisi2
 1303 0014 012B     		cmp	r3, #1
 1304 0016 03D0     		beq	.L49
 927:../Libraries/STM32F4xx_StdPeriph_Driver/src/stm32f4xx_spi.c ****   {
 928:../Libraries/STM32F4xx_StdPeriph_Driver/src/stm32f4xx_spi.c ****     /* Get the Tx CRC register */
 929:../Libraries/STM32F4xx_StdPeriph_Driver/src/stm32f4xx_spi.c ****     crcreg = SPIx->TXCRCR;
 1305              		.loc 1 929 0
 1306 0018 7B68     		ldr	r3, [r7, #4]
 1307 001a 1B8B     		ldrh	r3, [r3, #24]	@ movhi
 1308 001c FB81     		strh	r3, [r7, #14]	@ movhi
 1309 001e 02E0     		b	.L50
 1310              	.L49:
 930:../Libraries/STM32F4xx_StdPeriph_Driver/src/stm32f4xx_spi.c ****   }
 931:../Libraries/STM32F4xx_StdPeriph_Driver/src/stm32f4xx_spi.c ****   else
 932:../Libraries/STM32F4xx_StdPeriph_Driver/src/stm32f4xx_spi.c ****   {
 933:../Libraries/STM32F4xx_StdPeriph_Driver/src/stm32f4xx_spi.c ****     /* Get the Rx CRC register */
 934:../Libraries/STM32F4xx_StdPeriph_Driver/src/stm32f4xx_spi.c ****     crcreg = SPIx->RXCRCR;
 1311              		.loc 1 934 0
 1312 0020 7B68     		ldr	r3, [r7, #4]
 1313 0022 9B8A     		ldrh	r3, [r3, #20]	@ movhi
 1314 0024 FB81     		strh	r3, [r7, #14]	@ movhi
 1315              	.L50:
 935:../Libraries/STM32F4xx_StdPeriph_Driver/src/stm32f4xx_spi.c ****   }
 936:../Libraries/STM32F4xx_StdPeriph_Driver/src/stm32f4xx_spi.c ****   /* Return the selected CRC register */
 937:../Libraries/STM32F4xx_StdPeriph_Driver/src/stm32f4xx_spi.c ****   return crcreg;
 1316              		.loc 1 937 0
 1317 0026 FB89     		ldrh	r3, [r7, #14]
 938:../Libraries/STM32F4xx_StdPeriph_Driver/src/stm32f4xx_spi.c **** }
 1318              		.loc 1 938 0
 1319 0028 1846     		mov	r0, r3
 1320 002a 07F11407 		add	r7, r7, #20
 1321 002e BD46     		mov	sp, r7
 1322 0030 80BC     		pop	{r7}
 1323 0032 7047     		bx	lr
 1324              		.cfi_endproc
 1325              	.LFE127:
 1327              		.section	.text.SPI_GetCRCPolynomial,"ax",%progbits
 1328              		.align	2
 1329              		.global	SPI_GetCRCPolynomial
 1330              		.thumb
 1331              		.thumb_func
 1333              	SPI_GetCRCPolynomial:
 1334              	.LFB128:
 939:../Libraries/STM32F4xx_StdPeriph_Driver/src/stm32f4xx_spi.c **** 
 940:../Libraries/STM32F4xx_StdPeriph_Driver/src/stm32f4xx_spi.c **** /**
 941:../Libraries/STM32F4xx_StdPeriph_Driver/src/stm32f4xx_spi.c ****   * @brief  Returns the CRC Polynomial register value for the specified SPI.
 942:../Libraries/STM32F4xx_StdPeriph_Driver/src/stm32f4xx_spi.c ****   * @param  SPIx: where x can be 1, 2 or 3 to select the SPI peripheral.
 943:../Libraries/STM32F4xx_StdPeriph_Driver/src/stm32f4xx_spi.c ****   * @retval The CRC Polynomial register value.
 944:../Libraries/STM32F4xx_StdPeriph_Driver/src/stm32f4xx_spi.c ****   */
 945:../Libraries/STM32F4xx_StdPeriph_Driver/src/stm32f4xx_spi.c **** uint16_t SPI_GetCRCPolynomial(SPI_TypeDef* SPIx)
 946:../Libraries/STM32F4xx_StdPeriph_Driver/src/stm32f4xx_spi.c **** {
 1335              		.loc 1 946 0
 1336              		.cfi_startproc
 1337              		@ args = 0, pretend = 0, frame = 8
 1338              		@ frame_needed = 1, uses_anonymous_args = 0
 1339              		@ link register save eliminated.
 1340 0000 80B4     		push	{r7}
 1341              	.LCFI54:
 1342              		.cfi_def_cfa_offset 4
 1343              		.cfi_offset 7, -4
 1344 0002 83B0     		sub	sp, sp, #12
 1345              	.LCFI55:
 1346              		.cfi_def_cfa_offset 16
 1347 0004 00AF     		add	r7, sp, #0
 1348              	.LCFI56:
 1349              		.cfi_def_cfa_register 7
 1350 0006 7860     		str	r0, [r7, #4]
 947:../Libraries/STM32F4xx_StdPeriph_Driver/src/stm32f4xx_spi.c ****   /* Check the parameters */
 948:../Libraries/STM32F4xx_StdPeriph_Driver/src/stm32f4xx_spi.c ****   assert_param(IS_SPI_ALL_PERIPH(SPIx));
 949:../Libraries/STM32F4xx_StdPeriph_Driver/src/stm32f4xx_spi.c ****   
 950:../Libraries/STM32F4xx_StdPeriph_Driver/src/stm32f4xx_spi.c ****   /* Return the CRC polynomial register */
 951:../Libraries/STM32F4xx_StdPeriph_Driver/src/stm32f4xx_spi.c ****   return SPIx->CRCPR;
 1351              		.loc 1 951 0
 1352 0008 7B68     		ldr	r3, [r7, #4]
 1353 000a 1B8A     		ldrh	r3, [r3, #16]	@ movhi
 1354 000c 9BB2     		uxth	r3, r3
 952:../Libraries/STM32F4xx_StdPeriph_Driver/src/stm32f4xx_spi.c **** }
 1355              		.loc 1 952 0
 1356 000e 1846     		mov	r0, r3
 1357 0010 07F10C07 		add	r7, r7, #12
 1358 0014 BD46     		mov	sp, r7
 1359 0016 80BC     		pop	{r7}
 1360 0018 7047     		bx	lr
 1361              		.cfi_endproc
 1362              	.LFE128:
 1364 001a 00BF     		.section	.text.SPI_I2S_DMACmd,"ax",%progbits
 1365              		.align	2
 1366              		.global	SPI_I2S_DMACmd
 1367              		.thumb
 1368              		.thumb_func
 1370              	SPI_I2S_DMACmd:
 1371              	.LFB129:
 953:../Libraries/STM32F4xx_StdPeriph_Driver/src/stm32f4xx_spi.c **** 
 954:../Libraries/STM32F4xx_StdPeriph_Driver/src/stm32f4xx_spi.c **** /**
 955:../Libraries/STM32F4xx_StdPeriph_Driver/src/stm32f4xx_spi.c ****   * @}
 956:../Libraries/STM32F4xx_StdPeriph_Driver/src/stm32f4xx_spi.c ****   */
 957:../Libraries/STM32F4xx_StdPeriph_Driver/src/stm32f4xx_spi.c **** 
 958:../Libraries/STM32F4xx_StdPeriph_Driver/src/stm32f4xx_spi.c **** /** @defgroup SPI_Group4 DMA transfers management functions
 959:../Libraries/STM32F4xx_StdPeriph_Driver/src/stm32f4xx_spi.c ****  *  @brief   DMA transfers management functions
 960:../Libraries/STM32F4xx_StdPeriph_Driver/src/stm32f4xx_spi.c ****   *
 961:../Libraries/STM32F4xx_StdPeriph_Driver/src/stm32f4xx_spi.c **** @verbatim   
 962:../Libraries/STM32F4xx_StdPeriph_Driver/src/stm32f4xx_spi.c ****  ===============================================================================
 963:../Libraries/STM32F4xx_StdPeriph_Driver/src/stm32f4xx_spi.c ****                          DMA transfers management functions
 964:../Libraries/STM32F4xx_StdPeriph_Driver/src/stm32f4xx_spi.c ****  ===============================================================================  
 965:../Libraries/STM32F4xx_StdPeriph_Driver/src/stm32f4xx_spi.c **** 
 966:../Libraries/STM32F4xx_StdPeriph_Driver/src/stm32f4xx_spi.c **** @endverbatim
 967:../Libraries/STM32F4xx_StdPeriph_Driver/src/stm32f4xx_spi.c ****   * @{
 968:../Libraries/STM32F4xx_StdPeriph_Driver/src/stm32f4xx_spi.c ****   */
 969:../Libraries/STM32F4xx_StdPeriph_Driver/src/stm32f4xx_spi.c **** 
 970:../Libraries/STM32F4xx_StdPeriph_Driver/src/stm32f4xx_spi.c **** /**
 971:../Libraries/STM32F4xx_StdPeriph_Driver/src/stm32f4xx_spi.c ****   * @brief  Enables or disables the SPIx/I2Sx DMA interface.
 972:../Libraries/STM32F4xx_StdPeriph_Driver/src/stm32f4xx_spi.c ****   * @param  SPIx: To select the SPIx/I2Sx peripheral, where x can be: 1, 2 or 3 
 973:../Libraries/STM32F4xx_StdPeriph_Driver/src/stm32f4xx_spi.c ****   *         in SPI mode or 2 or 3 in I2S mode or I2Sxext for I2S full duplex mode. 
 974:../Libraries/STM32F4xx_StdPeriph_Driver/src/stm32f4xx_spi.c ****   * @param  SPI_I2S_DMAReq: specifies the SPI DMA transfer request to be enabled or disabled. 
 975:../Libraries/STM32F4xx_StdPeriph_Driver/src/stm32f4xx_spi.c ****   *          This parameter can be any combination of the following values:
 976:../Libraries/STM32F4xx_StdPeriph_Driver/src/stm32f4xx_spi.c ****   *            @arg SPI_I2S_DMAReq_Tx: Tx buffer DMA transfer request
 977:../Libraries/STM32F4xx_StdPeriph_Driver/src/stm32f4xx_spi.c ****   *            @arg SPI_I2S_DMAReq_Rx: Rx buffer DMA transfer request
 978:../Libraries/STM32F4xx_StdPeriph_Driver/src/stm32f4xx_spi.c ****   * @param  NewState: new state of the selected SPI DMA transfer request.
 979:../Libraries/STM32F4xx_StdPeriph_Driver/src/stm32f4xx_spi.c ****   *          This parameter can be: ENABLE or DISABLE.
 980:../Libraries/STM32F4xx_StdPeriph_Driver/src/stm32f4xx_spi.c ****   * @retval None
 981:../Libraries/STM32F4xx_StdPeriph_Driver/src/stm32f4xx_spi.c ****   */
 982:../Libraries/STM32F4xx_StdPeriph_Driver/src/stm32f4xx_spi.c **** void SPI_I2S_DMACmd(SPI_TypeDef* SPIx, uint16_t SPI_I2S_DMAReq, FunctionalState NewState)
 983:../Libraries/STM32F4xx_StdPeriph_Driver/src/stm32f4xx_spi.c **** {
 1372              		.loc 1 983 0
 1373              		.cfi_startproc
 1374              		@ args = 0, pretend = 0, frame = 8
 1375              		@ frame_needed = 1, uses_anonymous_args = 0
 1376              		@ link register save eliminated.
 1377 0000 80B4     		push	{r7}
 1378              	.LCFI57:
 1379              		.cfi_def_cfa_offset 4
 1380              		.cfi_offset 7, -4
 1381 0002 83B0     		sub	sp, sp, #12
 1382              	.LCFI58:
 1383              		.cfi_def_cfa_offset 16
 1384 0004 00AF     		add	r7, sp, #0
 1385              	.LCFI59:
 1386              		.cfi_def_cfa_register 7
 1387 0006 7860     		str	r0, [r7, #4]
 1388 0008 1346     		mov	r3, r2
 1389 000a 0A46     		mov	r2, r1	@ movhi
 1390 000c 7A80     		strh	r2, [r7, #2]	@ movhi
 1391 000e 7B70     		strb	r3, [r7, #1]
 984:../Libraries/STM32F4xx_StdPeriph_Driver/src/stm32f4xx_spi.c ****   /* Check the parameters */
 985:../Libraries/STM32F4xx_StdPeriph_Driver/src/stm32f4xx_spi.c ****   assert_param(IS_SPI_ALL_PERIPH_EXT(SPIx));
 986:../Libraries/STM32F4xx_StdPeriph_Driver/src/stm32f4xx_spi.c ****   assert_param(IS_FUNCTIONAL_STATE(NewState));
 987:../Libraries/STM32F4xx_StdPeriph_Driver/src/stm32f4xx_spi.c ****   assert_param(IS_SPI_I2S_DMAREQ(SPI_I2S_DMAReq));
 988:../Libraries/STM32F4xx_StdPeriph_Driver/src/stm32f4xx_spi.c **** 
 989:../Libraries/STM32F4xx_StdPeriph_Driver/src/stm32f4xx_spi.c ****   if (NewState != DISABLE)
 1392              		.loc 1 989 0
 1393 0010 7B78     		ldrb	r3, [r7, #1]	@ zero_extendqisi2
 1394 0012 002B     		cmp	r3, #0
 1395 0014 08D0     		beq	.L53
 990:../Libraries/STM32F4xx_StdPeriph_Driver/src/stm32f4xx_spi.c ****   {
 991:../Libraries/STM32F4xx_StdPeriph_Driver/src/stm32f4xx_spi.c ****     /* Enable the selected SPI DMA requests */
 992:../Libraries/STM32F4xx_StdPeriph_Driver/src/stm32f4xx_spi.c ****     SPIx->CR2 |= SPI_I2S_DMAReq;
 1396              		.loc 1 992 0
 1397 0016 7B68     		ldr	r3, [r7, #4]
 1398 0018 9B88     		ldrh	r3, [r3, #4]	@ movhi
 1399 001a 9AB2     		uxth	r2, r3
 1400 001c 7B88     		ldrh	r3, [r7, #2]	@ movhi
 1401 001e 1343     		orrs	r3, r3, r2
 1402 0020 9AB2     		uxth	r2, r3
 1403 0022 7B68     		ldr	r3, [r7, #4]
 1404 0024 9A80     		strh	r2, [r3, #4]	@ movhi
 1405 0026 0AE0     		b	.L52
 1406              	.L53:
 993:../Libraries/STM32F4xx_StdPeriph_Driver/src/stm32f4xx_spi.c ****   }
 994:../Libraries/STM32F4xx_StdPeriph_Driver/src/stm32f4xx_spi.c ****   else
 995:../Libraries/STM32F4xx_StdPeriph_Driver/src/stm32f4xx_spi.c ****   {
 996:../Libraries/STM32F4xx_StdPeriph_Driver/src/stm32f4xx_spi.c ****     /* Disable the selected SPI DMA requests */
 997:../Libraries/STM32F4xx_StdPeriph_Driver/src/stm32f4xx_spi.c ****     SPIx->CR2 &= (uint16_t)~SPI_I2S_DMAReq;
 1407              		.loc 1 997 0
 1408 0028 7B68     		ldr	r3, [r7, #4]
 1409 002a 9B88     		ldrh	r3, [r3, #4]	@ movhi
 1410 002c 9AB2     		uxth	r2, r3
 1411 002e 7B88     		ldrh	r3, [r7, #2]	@ movhi
 1412 0030 6FEA0303 		mvn	r3, r3
 1413 0034 9BB2     		uxth	r3, r3
 1414 0036 1340     		ands	r3, r3, r2
 1415 0038 9AB2     		uxth	r2, r3
 1416 003a 7B68     		ldr	r3, [r7, #4]
 1417 003c 9A80     		strh	r2, [r3, #4]	@ movhi
 1418              	.L52:
 998:../Libraries/STM32F4xx_StdPeriph_Driver/src/stm32f4xx_spi.c ****   }
 999:../Libraries/STM32F4xx_StdPeriph_Driver/src/stm32f4xx_spi.c **** }
 1419              		.loc 1 999 0
 1420 003e 07F10C07 		add	r7, r7, #12
 1421 0042 BD46     		mov	sp, r7
 1422 0044 80BC     		pop	{r7}
 1423 0046 7047     		bx	lr
 1424              		.cfi_endproc
 1425              	.LFE129:
 1427              		.section	.text.SPI_I2S_ITConfig,"ax",%progbits
 1428              		.align	2
 1429              		.global	SPI_I2S_ITConfig
 1430              		.thumb
 1431              		.thumb_func
 1433              	SPI_I2S_ITConfig:
 1434              	.LFB130:
1000:../Libraries/STM32F4xx_StdPeriph_Driver/src/stm32f4xx_spi.c **** 
1001:../Libraries/STM32F4xx_StdPeriph_Driver/src/stm32f4xx_spi.c **** /**
1002:../Libraries/STM32F4xx_StdPeriph_Driver/src/stm32f4xx_spi.c ****   * @}
1003:../Libraries/STM32F4xx_StdPeriph_Driver/src/stm32f4xx_spi.c ****   */
1004:../Libraries/STM32F4xx_StdPeriph_Driver/src/stm32f4xx_spi.c **** 
1005:../Libraries/STM32F4xx_StdPeriph_Driver/src/stm32f4xx_spi.c **** /** @defgroup SPI_Group5 Interrupts and flags management functions
1006:../Libraries/STM32F4xx_StdPeriph_Driver/src/stm32f4xx_spi.c ****  *  @brief   Interrupts and flags management functions
1007:../Libraries/STM32F4xx_StdPeriph_Driver/src/stm32f4xx_spi.c ****   *
1008:../Libraries/STM32F4xx_StdPeriph_Driver/src/stm32f4xx_spi.c **** @verbatim   
1009:../Libraries/STM32F4xx_StdPeriph_Driver/src/stm32f4xx_spi.c ****  ===============================================================================
1010:../Libraries/STM32F4xx_StdPeriph_Driver/src/stm32f4xx_spi.c ****                          Interrupts and flags management functions
1011:../Libraries/STM32F4xx_StdPeriph_Driver/src/stm32f4xx_spi.c ****  ===============================================================================  
1012:../Libraries/STM32F4xx_StdPeriph_Driver/src/stm32f4xx_spi.c **** 
1013:../Libraries/STM32F4xx_StdPeriph_Driver/src/stm32f4xx_spi.c ****   This section provides a set of functions allowing to configure the SPI Interrupts 
1014:../Libraries/STM32F4xx_StdPeriph_Driver/src/stm32f4xx_spi.c ****   sources and check or clear the flags or pending bits status.
1015:../Libraries/STM32F4xx_StdPeriph_Driver/src/stm32f4xx_spi.c ****   The user should identify which mode will be used in his application to manage 
1016:../Libraries/STM32F4xx_StdPeriph_Driver/src/stm32f4xx_spi.c ****   the communication: Polling mode, Interrupt mode or DMA mode. 
1017:../Libraries/STM32F4xx_StdPeriph_Driver/src/stm32f4xx_spi.c ****     
1018:../Libraries/STM32F4xx_StdPeriph_Driver/src/stm32f4xx_spi.c ****   Polling Mode
1019:../Libraries/STM32F4xx_StdPeriph_Driver/src/stm32f4xx_spi.c ****   =============
1020:../Libraries/STM32F4xx_StdPeriph_Driver/src/stm32f4xx_spi.c ****   In Polling Mode, the SPI/I2S communication can be managed by 9 flags:
1021:../Libraries/STM32F4xx_StdPeriph_Driver/src/stm32f4xx_spi.c ****      1. SPI_I2S_FLAG_TXE : to indicate the status of the transmit buffer register
1022:../Libraries/STM32F4xx_StdPeriph_Driver/src/stm32f4xx_spi.c ****      2. SPI_I2S_FLAG_RXNE : to indicate the status of the receive buffer register
1023:../Libraries/STM32F4xx_StdPeriph_Driver/src/stm32f4xx_spi.c ****      3. SPI_I2S_FLAG_BSY : to indicate the state of the communication layer of the SPI.
1024:../Libraries/STM32F4xx_StdPeriph_Driver/src/stm32f4xx_spi.c ****      4. SPI_FLAG_CRCERR : to indicate if a CRC Calculation error occur              
1025:../Libraries/STM32F4xx_StdPeriph_Driver/src/stm32f4xx_spi.c ****      5. SPI_FLAG_MODF : to indicate if a Mode Fault error occur
1026:../Libraries/STM32F4xx_StdPeriph_Driver/src/stm32f4xx_spi.c ****      6. SPI_I2S_FLAG_OVR : to indicate if an Overrun error occur
1027:../Libraries/STM32F4xx_StdPeriph_Driver/src/stm32f4xx_spi.c ****      7. I2S_FLAG_TIFRFE: to indicate a Frame Format error occurs.
1028:../Libraries/STM32F4xx_StdPeriph_Driver/src/stm32f4xx_spi.c ****      8. I2S_FLAG_UDR: to indicate an Underrun error occurs.
1029:../Libraries/STM32F4xx_StdPeriph_Driver/src/stm32f4xx_spi.c ****      9. I2S_FLAG_CHSIDE: to indicate Channel Side.
1030:../Libraries/STM32F4xx_StdPeriph_Driver/src/stm32f4xx_spi.c **** 
1031:../Libraries/STM32F4xx_StdPeriph_Driver/src/stm32f4xx_spi.c **** @note Do not use the BSY flag to handle each data transmission or reception.  It is
1032:../Libraries/STM32F4xx_StdPeriph_Driver/src/stm32f4xx_spi.c ****       better to use the TXE and RXNE flags instead.
1033:../Libraries/STM32F4xx_StdPeriph_Driver/src/stm32f4xx_spi.c **** 
1034:../Libraries/STM32F4xx_StdPeriph_Driver/src/stm32f4xx_spi.c ****   In this Mode it is advised to use the following functions:
1035:../Libraries/STM32F4xx_StdPeriph_Driver/src/stm32f4xx_spi.c ****      - FlagStatus SPI_I2S_GetFlagStatus(SPI_TypeDef* SPIx, uint16_t SPI_I2S_FLAG);
1036:../Libraries/STM32F4xx_StdPeriph_Driver/src/stm32f4xx_spi.c ****      - void SPI_I2S_ClearFlag(SPI_TypeDef* SPIx, uint16_t SPI_I2S_FLAG);
1037:../Libraries/STM32F4xx_StdPeriph_Driver/src/stm32f4xx_spi.c **** 
1038:../Libraries/STM32F4xx_StdPeriph_Driver/src/stm32f4xx_spi.c ****   Interrupt Mode
1039:../Libraries/STM32F4xx_StdPeriph_Driver/src/stm32f4xx_spi.c ****   ===============
1040:../Libraries/STM32F4xx_StdPeriph_Driver/src/stm32f4xx_spi.c ****   In Interrupt Mode, the SPI communication can be managed by 3 interrupt sources
1041:../Libraries/STM32F4xx_StdPeriph_Driver/src/stm32f4xx_spi.c ****   and 7 pending bits: 
1042:../Libraries/STM32F4xx_StdPeriph_Driver/src/stm32f4xx_spi.c ****   Pending Bits:
1043:../Libraries/STM32F4xx_StdPeriph_Driver/src/stm32f4xx_spi.c ****   ------------- 
1044:../Libraries/STM32F4xx_StdPeriph_Driver/src/stm32f4xx_spi.c ****      1. SPI_I2S_IT_TXE : to indicate the status of the transmit buffer register
1045:../Libraries/STM32F4xx_StdPeriph_Driver/src/stm32f4xx_spi.c ****      2. SPI_I2S_IT_RXNE : to indicate the status of the receive buffer register
1046:../Libraries/STM32F4xx_StdPeriph_Driver/src/stm32f4xx_spi.c ****      3. SPI_IT_CRCERR : to indicate if a CRC Calculation error occur (available in SPI mode only)  
1047:../Libraries/STM32F4xx_StdPeriph_Driver/src/stm32f4xx_spi.c ****      4. SPI_IT_MODF : to indicate if a Mode Fault error occur (available in SPI mode only)
1048:../Libraries/STM32F4xx_StdPeriph_Driver/src/stm32f4xx_spi.c ****      5. SPI_I2S_IT_OVR : to indicate if an Overrun error occur
1049:../Libraries/STM32F4xx_StdPeriph_Driver/src/stm32f4xx_spi.c ****      6. I2S_IT_UDR : to indicate an Underrun Error occurs (available in I2S mode only).
1050:../Libraries/STM32F4xx_StdPeriph_Driver/src/stm32f4xx_spi.c ****      7. I2S_FLAG_TIFRFE : to indicate a Frame Format error occurs (available in TI mode only).
1051:../Libraries/STM32F4xx_StdPeriph_Driver/src/stm32f4xx_spi.c **** 
1052:../Libraries/STM32F4xx_StdPeriph_Driver/src/stm32f4xx_spi.c ****   Interrupt Source:
1053:../Libraries/STM32F4xx_StdPeriph_Driver/src/stm32f4xx_spi.c ****   -----------------
1054:../Libraries/STM32F4xx_StdPeriph_Driver/src/stm32f4xx_spi.c ****      1. SPI_I2S_IT_TXE: specifies the interrupt source for the Tx buffer empty 
1055:../Libraries/STM32F4xx_StdPeriph_Driver/src/stm32f4xx_spi.c ****                         interrupt.  
1056:../Libraries/STM32F4xx_StdPeriph_Driver/src/stm32f4xx_spi.c ****      2. SPI_I2S_IT_RXNE : specifies the interrupt source for the Rx buffer not 
1057:../Libraries/STM32F4xx_StdPeriph_Driver/src/stm32f4xx_spi.c ****                           empty interrupt.
1058:../Libraries/STM32F4xx_StdPeriph_Driver/src/stm32f4xx_spi.c ****      3. SPI_I2S_IT_ERR : specifies the interrupt source for the errors interrupt.
1059:../Libraries/STM32F4xx_StdPeriph_Driver/src/stm32f4xx_spi.c **** 
1060:../Libraries/STM32F4xx_StdPeriph_Driver/src/stm32f4xx_spi.c ****   In this Mode it is advised to use the following functions:
1061:../Libraries/STM32F4xx_StdPeriph_Driver/src/stm32f4xx_spi.c ****      - void SPI_I2S_ITConfig(SPI_TypeDef* SPIx, uint8_t SPI_I2S_IT, FunctionalState NewState);
1062:../Libraries/STM32F4xx_StdPeriph_Driver/src/stm32f4xx_spi.c ****      - ITStatus SPI_I2S_GetITStatus(SPI_TypeDef* SPIx, uint8_t SPI_I2S_IT);
1063:../Libraries/STM32F4xx_StdPeriph_Driver/src/stm32f4xx_spi.c ****      - void SPI_I2S_ClearITPendingBit(SPI_TypeDef* SPIx, uint8_t SPI_I2S_IT);
1064:../Libraries/STM32F4xx_StdPeriph_Driver/src/stm32f4xx_spi.c **** 
1065:../Libraries/STM32F4xx_StdPeriph_Driver/src/stm32f4xx_spi.c ****   DMA Mode
1066:../Libraries/STM32F4xx_StdPeriph_Driver/src/stm32f4xx_spi.c ****   ========
1067:../Libraries/STM32F4xx_StdPeriph_Driver/src/stm32f4xx_spi.c ****   In DMA Mode, the SPI communication can be managed by 2 DMA Channel requests:
1068:../Libraries/STM32F4xx_StdPeriph_Driver/src/stm32f4xx_spi.c ****      1. SPI_I2S_DMAReq_Tx: specifies the Tx buffer DMA transfer request
1069:../Libraries/STM32F4xx_StdPeriph_Driver/src/stm32f4xx_spi.c ****      2. SPI_I2S_DMAReq_Rx: specifies the Rx buffer DMA transfer request
1070:../Libraries/STM32F4xx_StdPeriph_Driver/src/stm32f4xx_spi.c **** 
1071:../Libraries/STM32F4xx_StdPeriph_Driver/src/stm32f4xx_spi.c ****   In this Mode it is advised to use the following function:
1072:../Libraries/STM32F4xx_StdPeriph_Driver/src/stm32f4xx_spi.c ****     - void SPI_I2S_DMACmd(SPI_TypeDef* SPIx, uint16_t SPI_I2S_DMAReq, FunctionalState NewState);
1073:../Libraries/STM32F4xx_StdPeriph_Driver/src/stm32f4xx_spi.c **** 
1074:../Libraries/STM32F4xx_StdPeriph_Driver/src/stm32f4xx_spi.c **** @endverbatim
1075:../Libraries/STM32F4xx_StdPeriph_Driver/src/stm32f4xx_spi.c ****   * @{
1076:../Libraries/STM32F4xx_StdPeriph_Driver/src/stm32f4xx_spi.c ****   */
1077:../Libraries/STM32F4xx_StdPeriph_Driver/src/stm32f4xx_spi.c **** 
1078:../Libraries/STM32F4xx_StdPeriph_Driver/src/stm32f4xx_spi.c **** /**
1079:../Libraries/STM32F4xx_StdPeriph_Driver/src/stm32f4xx_spi.c ****   * @brief  Enables or disables the specified SPI/I2S interrupts.
1080:../Libraries/STM32F4xx_StdPeriph_Driver/src/stm32f4xx_spi.c ****   * @param  SPIx: To select the SPIx/I2Sx peripheral, where x can be: 1, 2 or 3 
1081:../Libraries/STM32F4xx_StdPeriph_Driver/src/stm32f4xx_spi.c ****   *         in SPI mode or 2 or 3 in I2S mode or I2Sxext for I2S full duplex mode. 
1082:../Libraries/STM32F4xx_StdPeriph_Driver/src/stm32f4xx_spi.c ****   * @param  SPI_I2S_IT: specifies the SPI interrupt source to be enabled or disabled. 
1083:../Libraries/STM32F4xx_StdPeriph_Driver/src/stm32f4xx_spi.c ****   *          This parameter can be one of the following values:
1084:../Libraries/STM32F4xx_StdPeriph_Driver/src/stm32f4xx_spi.c ****   *            @arg SPI_I2S_IT_TXE: Tx buffer empty interrupt mask
1085:../Libraries/STM32F4xx_StdPeriph_Driver/src/stm32f4xx_spi.c ****   *            @arg SPI_I2S_IT_RXNE: Rx buffer not empty interrupt mask
1086:../Libraries/STM32F4xx_StdPeriph_Driver/src/stm32f4xx_spi.c ****   *            @arg SPI_I2S_IT_ERR: Error interrupt mask
1087:../Libraries/STM32F4xx_StdPeriph_Driver/src/stm32f4xx_spi.c ****   * @param  NewState: new state of the specified SPI interrupt.
1088:../Libraries/STM32F4xx_StdPeriph_Driver/src/stm32f4xx_spi.c ****   *          This parameter can be: ENABLE or DISABLE.
1089:../Libraries/STM32F4xx_StdPeriph_Driver/src/stm32f4xx_spi.c ****   * @retval None
1090:../Libraries/STM32F4xx_StdPeriph_Driver/src/stm32f4xx_spi.c ****   */
1091:../Libraries/STM32F4xx_StdPeriph_Driver/src/stm32f4xx_spi.c **** void SPI_I2S_ITConfig(SPI_TypeDef* SPIx, uint8_t SPI_I2S_IT, FunctionalState NewState)
1092:../Libraries/STM32F4xx_StdPeriph_Driver/src/stm32f4xx_spi.c **** {
 1435              		.loc 1 1092 0
 1436              		.cfi_startproc
 1437              		@ args = 0, pretend = 0, frame = 16
 1438              		@ frame_needed = 1, uses_anonymous_args = 0
 1439              		@ link register save eliminated.
 1440 0000 80B4     		push	{r7}
 1441              	.LCFI60:
 1442              		.cfi_def_cfa_offset 4
 1443              		.cfi_offset 7, -4
 1444 0002 85B0     		sub	sp, sp, #20
 1445              	.LCFI61:
 1446              		.cfi_def_cfa_offset 24
 1447 0004 00AF     		add	r7, sp, #0
 1448              	.LCFI62:
 1449              		.cfi_def_cfa_register 7
 1450 0006 7860     		str	r0, [r7, #4]
 1451 0008 1346     		mov	r3, r2
 1452 000a 0A46     		mov	r2, r1
 1453 000c FA70     		strb	r2, [r7, #3]
 1454 000e BB70     		strb	r3, [r7, #2]
1093:../Libraries/STM32F4xx_StdPeriph_Driver/src/stm32f4xx_spi.c ****   uint16_t itpos = 0, itmask = 0 ;
 1455              		.loc 1 1093 0
 1456 0010 4FF00003 		mov	r3, #0
 1457 0014 FB81     		strh	r3, [r7, #14]	@ movhi
 1458 0016 4FF00003 		mov	r3, #0
 1459 001a BB81     		strh	r3, [r7, #12]	@ movhi
1094:../Libraries/STM32F4xx_StdPeriph_Driver/src/stm32f4xx_spi.c ****   
1095:../Libraries/STM32F4xx_StdPeriph_Driver/src/stm32f4xx_spi.c ****   /* Check the parameters */
1096:../Libraries/STM32F4xx_StdPeriph_Driver/src/stm32f4xx_spi.c ****   assert_param(IS_SPI_ALL_PERIPH_EXT(SPIx));
1097:../Libraries/STM32F4xx_StdPeriph_Driver/src/stm32f4xx_spi.c ****   assert_param(IS_FUNCTIONAL_STATE(NewState));
1098:../Libraries/STM32F4xx_StdPeriph_Driver/src/stm32f4xx_spi.c ****   assert_param(IS_SPI_I2S_CONFIG_IT(SPI_I2S_IT));
1099:../Libraries/STM32F4xx_StdPeriph_Driver/src/stm32f4xx_spi.c **** 
1100:../Libraries/STM32F4xx_StdPeriph_Driver/src/stm32f4xx_spi.c ****   /* Get the SPI IT index */
1101:../Libraries/STM32F4xx_StdPeriph_Driver/src/stm32f4xx_spi.c ****   itpos = SPI_I2S_IT >> 4;
 1460              		.loc 1 1101 0
 1461 001c FB78     		ldrb	r3, [r7, #3]	@ zero_extendqisi2
 1462 001e 4FEA1313 		lsr	r3, r3, #4
 1463 0022 DBB2     		uxtb	r3, r3
 1464 0024 FB81     		strh	r3, [r7, #14]	@ movhi
1102:../Libraries/STM32F4xx_StdPeriph_Driver/src/stm32f4xx_spi.c **** 
1103:../Libraries/STM32F4xx_StdPeriph_Driver/src/stm32f4xx_spi.c ****   /* Set the IT mask */
1104:../Libraries/STM32F4xx_StdPeriph_Driver/src/stm32f4xx_spi.c ****   itmask = (uint16_t)1 << (uint16_t)itpos;
 1465              		.loc 1 1104 0
 1466 0026 FB89     		ldrh	r3, [r7, #14]
 1467 0028 4FF00102 		mov	r2, #1
 1468 002c 02FA03F3 		lsl	r3, r2, r3
 1469 0030 BB81     		strh	r3, [r7, #12]	@ movhi
1105:../Libraries/STM32F4xx_StdPeriph_Driver/src/stm32f4xx_spi.c **** 
1106:../Libraries/STM32F4xx_StdPeriph_Driver/src/stm32f4xx_spi.c ****   if (NewState != DISABLE)
 1470              		.loc 1 1106 0
 1471 0032 BB78     		ldrb	r3, [r7, #2]	@ zero_extendqisi2
 1472 0034 002B     		cmp	r3, #0
 1473 0036 08D0     		beq	.L56
1107:../Libraries/STM32F4xx_StdPeriph_Driver/src/stm32f4xx_spi.c ****   {
1108:../Libraries/STM32F4xx_StdPeriph_Driver/src/stm32f4xx_spi.c ****     /* Enable the selected SPI interrupt */
1109:../Libraries/STM32F4xx_StdPeriph_Driver/src/stm32f4xx_spi.c ****     SPIx->CR2 |= itmask;
 1474              		.loc 1 1109 0
 1475 0038 7B68     		ldr	r3, [r7, #4]
 1476 003a 9B88     		ldrh	r3, [r3, #4]	@ movhi
 1477 003c 9AB2     		uxth	r2, r3
 1478 003e BB89     		ldrh	r3, [r7, #12]	@ movhi
 1479 0040 1343     		orrs	r3, r3, r2
 1480 0042 9AB2     		uxth	r2, r3
 1481 0044 7B68     		ldr	r3, [r7, #4]
 1482 0046 9A80     		strh	r2, [r3, #4]	@ movhi
 1483 0048 0AE0     		b	.L55
 1484              	.L56:
1110:../Libraries/STM32F4xx_StdPeriph_Driver/src/stm32f4xx_spi.c ****   }
1111:../Libraries/STM32F4xx_StdPeriph_Driver/src/stm32f4xx_spi.c ****   else
1112:../Libraries/STM32F4xx_StdPeriph_Driver/src/stm32f4xx_spi.c ****   {
1113:../Libraries/STM32F4xx_StdPeriph_Driver/src/stm32f4xx_spi.c ****     /* Disable the selected SPI interrupt */
1114:../Libraries/STM32F4xx_StdPeriph_Driver/src/stm32f4xx_spi.c ****     SPIx->CR2 &= (uint16_t)~itmask;
 1485              		.loc 1 1114 0
 1486 004a 7B68     		ldr	r3, [r7, #4]
 1487 004c 9B88     		ldrh	r3, [r3, #4]	@ movhi
 1488 004e 9AB2     		uxth	r2, r3
 1489 0050 BB89     		ldrh	r3, [r7, #12]	@ movhi
 1490 0052 6FEA0303 		mvn	r3, r3
 1491 0056 9BB2     		uxth	r3, r3
 1492 0058 1340     		ands	r3, r3, r2
 1493 005a 9AB2     		uxth	r2, r3
 1494 005c 7B68     		ldr	r3, [r7, #4]
 1495 005e 9A80     		strh	r2, [r3, #4]	@ movhi
 1496              	.L55:
1115:../Libraries/STM32F4xx_StdPeriph_Driver/src/stm32f4xx_spi.c ****   }
1116:../Libraries/STM32F4xx_StdPeriph_Driver/src/stm32f4xx_spi.c **** }
 1497              		.loc 1 1116 0
 1498 0060 07F11407 		add	r7, r7, #20
 1499 0064 BD46     		mov	sp, r7
 1500 0066 80BC     		pop	{r7}
 1501 0068 7047     		bx	lr
 1502              		.cfi_endproc
 1503              	.LFE130:
 1505 006a 00BF     		.section	.text.SPI_I2S_GetFlagStatus,"ax",%progbits
 1506              		.align	2
 1507              		.global	SPI_I2S_GetFlagStatus
 1508              		.thumb
 1509              		.thumb_func
 1511              	SPI_I2S_GetFlagStatus:
 1512              	.LFB131:
1117:../Libraries/STM32F4xx_StdPeriph_Driver/src/stm32f4xx_spi.c **** 
1118:../Libraries/STM32F4xx_StdPeriph_Driver/src/stm32f4xx_spi.c **** /**
1119:../Libraries/STM32F4xx_StdPeriph_Driver/src/stm32f4xx_spi.c ****   * @brief  Checks whether the specified SPIx/I2Sx flag is set or not.
1120:../Libraries/STM32F4xx_StdPeriph_Driver/src/stm32f4xx_spi.c ****   * @param  SPIx: To select the SPIx/I2Sx peripheral, where x can be: 1, 2 or 3 
1121:../Libraries/STM32F4xx_StdPeriph_Driver/src/stm32f4xx_spi.c ****   *         in SPI mode or 2 or 3 in I2S mode or I2Sxext for I2S full duplex mode. 
1122:../Libraries/STM32F4xx_StdPeriph_Driver/src/stm32f4xx_spi.c ****   * @param  SPI_I2S_FLAG: specifies the SPI flag to check. 
1123:../Libraries/STM32F4xx_StdPeriph_Driver/src/stm32f4xx_spi.c ****   *          This parameter can be one of the following values:
1124:../Libraries/STM32F4xx_StdPeriph_Driver/src/stm32f4xx_spi.c ****   *            @arg SPI_I2S_FLAG_TXE: Transmit buffer empty flag.
1125:../Libraries/STM32F4xx_StdPeriph_Driver/src/stm32f4xx_spi.c ****   *            @arg SPI_I2S_FLAG_RXNE: Receive buffer not empty flag.
1126:../Libraries/STM32F4xx_StdPeriph_Driver/src/stm32f4xx_spi.c ****   *            @arg SPI_I2S_FLAG_BSY: Busy flag.
1127:../Libraries/STM32F4xx_StdPeriph_Driver/src/stm32f4xx_spi.c ****   *            @arg SPI_I2S_FLAG_OVR: Overrun flag.
1128:../Libraries/STM32F4xx_StdPeriph_Driver/src/stm32f4xx_spi.c ****   *            @arg SPI_FLAG_MODF: Mode Fault flag.
1129:../Libraries/STM32F4xx_StdPeriph_Driver/src/stm32f4xx_spi.c ****   *            @arg SPI_FLAG_CRCERR: CRC Error flag.
1130:../Libraries/STM32F4xx_StdPeriph_Driver/src/stm32f4xx_spi.c ****   *            @arg SPI_I2S_FLAG_TIFRFE: Format Error.
1131:../Libraries/STM32F4xx_StdPeriph_Driver/src/stm32f4xx_spi.c ****   *            @arg I2S_FLAG_UDR: Underrun Error flag.
1132:../Libraries/STM32F4xx_StdPeriph_Driver/src/stm32f4xx_spi.c ****   *            @arg I2S_FLAG_CHSIDE: Channel Side flag.  
1133:../Libraries/STM32F4xx_StdPeriph_Driver/src/stm32f4xx_spi.c ****   * @retval The new state of SPI_I2S_FLAG (SET or RESET).
1134:../Libraries/STM32F4xx_StdPeriph_Driver/src/stm32f4xx_spi.c ****   */
1135:../Libraries/STM32F4xx_StdPeriph_Driver/src/stm32f4xx_spi.c **** FlagStatus SPI_I2S_GetFlagStatus(SPI_TypeDef* SPIx, uint16_t SPI_I2S_FLAG)
1136:../Libraries/STM32F4xx_StdPeriph_Driver/src/stm32f4xx_spi.c **** {
 1513              		.loc 1 1136 0
 1514              		.cfi_startproc
 1515              		@ args = 0, pretend = 0, frame = 16
 1516              		@ frame_needed = 1, uses_anonymous_args = 0
 1517              		@ link register save eliminated.
 1518 0000 80B4     		push	{r7}
 1519              	.LCFI63:
 1520              		.cfi_def_cfa_offset 4
 1521              		.cfi_offset 7, -4
 1522 0002 85B0     		sub	sp, sp, #20
 1523              	.LCFI64:
 1524              		.cfi_def_cfa_offset 24
 1525 0004 00AF     		add	r7, sp, #0
 1526              	.LCFI65:
 1527              		.cfi_def_cfa_register 7
 1528 0006 7860     		str	r0, [r7, #4]
 1529 0008 0B46     		mov	r3, r1
 1530 000a 7B80     		strh	r3, [r7, #2]	@ movhi
1137:../Libraries/STM32F4xx_StdPeriph_Driver/src/stm32f4xx_spi.c ****   FlagStatus bitstatus = RESET;
 1531              		.loc 1 1137 0
 1532 000c 4FF00003 		mov	r3, #0
 1533 0010 FB73     		strb	r3, [r7, #15]
1138:../Libraries/STM32F4xx_StdPeriph_Driver/src/stm32f4xx_spi.c ****   /* Check the parameters */
1139:../Libraries/STM32F4xx_StdPeriph_Driver/src/stm32f4xx_spi.c ****   assert_param(IS_SPI_ALL_PERIPH_EXT(SPIx));
1140:../Libraries/STM32F4xx_StdPeriph_Driver/src/stm32f4xx_spi.c ****   assert_param(IS_SPI_I2S_GET_FLAG(SPI_I2S_FLAG));
1141:../Libraries/STM32F4xx_StdPeriph_Driver/src/stm32f4xx_spi.c ****   
1142:../Libraries/STM32F4xx_StdPeriph_Driver/src/stm32f4xx_spi.c ****   /* Check the status of the specified SPI flag */
1143:../Libraries/STM32F4xx_StdPeriph_Driver/src/stm32f4xx_spi.c ****   if ((SPIx->SR & SPI_I2S_FLAG) != (uint16_t)RESET)
 1534              		.loc 1 1143 0
 1535 0012 7B68     		ldr	r3, [r7, #4]
 1536 0014 1B89     		ldrh	r3, [r3, #8]	@ movhi
 1537 0016 9AB2     		uxth	r2, r3
 1538 0018 7B88     		ldrh	r3, [r7, #2]	@ movhi
 1539 001a 1340     		ands	r3, r3, r2
 1540 001c 9BB2     		uxth	r3, r3
 1541 001e 002B     		cmp	r3, #0
 1542 0020 03D0     		beq	.L59
1144:../Libraries/STM32F4xx_StdPeriph_Driver/src/stm32f4xx_spi.c ****   {
1145:../Libraries/STM32F4xx_StdPeriph_Driver/src/stm32f4xx_spi.c ****     /* SPI_I2S_FLAG is set */
1146:../Libraries/STM32F4xx_StdPeriph_Driver/src/stm32f4xx_spi.c ****     bitstatus = SET;
 1543              		.loc 1 1146 0
 1544 0022 4FF00103 		mov	r3, #1
 1545 0026 FB73     		strb	r3, [r7, #15]
 1546 0028 02E0     		b	.L60
 1547              	.L59:
1147:../Libraries/STM32F4xx_StdPeriph_Driver/src/stm32f4xx_spi.c ****   }
1148:../Libraries/STM32F4xx_StdPeriph_Driver/src/stm32f4xx_spi.c ****   else
1149:../Libraries/STM32F4xx_StdPeriph_Driver/src/stm32f4xx_spi.c ****   {
1150:../Libraries/STM32F4xx_StdPeriph_Driver/src/stm32f4xx_spi.c ****     /* SPI_I2S_FLAG is reset */
1151:../Libraries/STM32F4xx_StdPeriph_Driver/src/stm32f4xx_spi.c ****     bitstatus = RESET;
 1548              		.loc 1 1151 0
 1549 002a 4FF00003 		mov	r3, #0
 1550 002e FB73     		strb	r3, [r7, #15]
 1551              	.L60:
1152:../Libraries/STM32F4xx_StdPeriph_Driver/src/stm32f4xx_spi.c ****   }
1153:../Libraries/STM32F4xx_StdPeriph_Driver/src/stm32f4xx_spi.c ****   /* Return the SPI_I2S_FLAG status */
1154:../Libraries/STM32F4xx_StdPeriph_Driver/src/stm32f4xx_spi.c ****   return  bitstatus;
 1552              		.loc 1 1154 0
 1553 0030 FB7B     		ldrb	r3, [r7, #15]	@ zero_extendqisi2
1155:../Libraries/STM32F4xx_StdPeriph_Driver/src/stm32f4xx_spi.c **** }
 1554              		.loc 1 1155 0
 1555 0032 1846     		mov	r0, r3
 1556 0034 07F11407 		add	r7, r7, #20
 1557 0038 BD46     		mov	sp, r7
 1558 003a 80BC     		pop	{r7}
 1559 003c 7047     		bx	lr
 1560              		.cfi_endproc
 1561              	.LFE131:
 1563 003e 00BF     		.section	.text.SPI_I2S_ClearFlag,"ax",%progbits
 1564              		.align	2
 1565              		.global	SPI_I2S_ClearFlag
 1566              		.thumb
 1567              		.thumb_func
 1569              	SPI_I2S_ClearFlag:
 1570              	.LFB132:
1156:../Libraries/STM32F4xx_StdPeriph_Driver/src/stm32f4xx_spi.c **** 
1157:../Libraries/STM32F4xx_StdPeriph_Driver/src/stm32f4xx_spi.c **** /**
1158:../Libraries/STM32F4xx_StdPeriph_Driver/src/stm32f4xx_spi.c ****   * @brief  Clears the SPIx CRC Error (CRCERR) flag.
1159:../Libraries/STM32F4xx_StdPeriph_Driver/src/stm32f4xx_spi.c ****   * @param  SPIx: To select the SPIx/I2Sx peripheral, where x can be: 1, 2 or 3 
1160:../Libraries/STM32F4xx_StdPeriph_Driver/src/stm32f4xx_spi.c ****   *         in SPI mode or 2 or 3 in I2S mode or I2Sxext for I2S full duplex mode. 
1161:../Libraries/STM32F4xx_StdPeriph_Driver/src/stm32f4xx_spi.c ****   * @param  SPI_I2S_FLAG: specifies the SPI flag to clear. 
1162:../Libraries/STM32F4xx_StdPeriph_Driver/src/stm32f4xx_spi.c ****   *          This function clears only CRCERR flag.
1163:../Libraries/STM32F4xx_StdPeriph_Driver/src/stm32f4xx_spi.c ****   *            @arg SPI_FLAG_CRCERR: CRC Error flag.  
1164:../Libraries/STM32F4xx_StdPeriph_Driver/src/stm32f4xx_spi.c ****   *  
1165:../Libraries/STM32F4xx_StdPeriph_Driver/src/stm32f4xx_spi.c ****   * @note   OVR (OverRun error) flag is cleared by software sequence: a read 
1166:../Libraries/STM32F4xx_StdPeriph_Driver/src/stm32f4xx_spi.c ****   *          operation to SPI_DR register (SPI_I2S_ReceiveData()) followed by a read 
1167:../Libraries/STM32F4xx_StdPeriph_Driver/src/stm32f4xx_spi.c ****   *          operation to SPI_SR register (SPI_I2S_GetFlagStatus()).
1168:../Libraries/STM32F4xx_StdPeriph_Driver/src/stm32f4xx_spi.c ****   * @note   UDR (UnderRun error) flag is cleared by a read operation to 
1169:../Libraries/STM32F4xx_StdPeriph_Driver/src/stm32f4xx_spi.c ****   *          SPI_SR register (SPI_I2S_GetFlagStatus()).   
1170:../Libraries/STM32F4xx_StdPeriph_Driver/src/stm32f4xx_spi.c ****   * @note   MODF (Mode Fault) flag is cleared by software sequence: a read/write 
1171:../Libraries/STM32F4xx_StdPeriph_Driver/src/stm32f4xx_spi.c ****   *          operation to SPI_SR register (SPI_I2S_GetFlagStatus()) followed by a 
1172:../Libraries/STM32F4xx_StdPeriph_Driver/src/stm32f4xx_spi.c ****   *          write operation to SPI_CR1 register (SPI_Cmd() to enable the SPI).
1173:../Libraries/STM32F4xx_StdPeriph_Driver/src/stm32f4xx_spi.c ****   *  
1174:../Libraries/STM32F4xx_StdPeriph_Driver/src/stm32f4xx_spi.c ****   * @retval None
1175:../Libraries/STM32F4xx_StdPeriph_Driver/src/stm32f4xx_spi.c ****   */
1176:../Libraries/STM32F4xx_StdPeriph_Driver/src/stm32f4xx_spi.c **** void SPI_I2S_ClearFlag(SPI_TypeDef* SPIx, uint16_t SPI_I2S_FLAG)
1177:../Libraries/STM32F4xx_StdPeriph_Driver/src/stm32f4xx_spi.c **** {
 1571              		.loc 1 1177 0
 1572              		.cfi_startproc
 1573              		@ args = 0, pretend = 0, frame = 8
 1574              		@ frame_needed = 1, uses_anonymous_args = 0
 1575              		@ link register save eliminated.
 1576 0000 80B4     		push	{r7}
 1577              	.LCFI66:
 1578              		.cfi_def_cfa_offset 4
 1579              		.cfi_offset 7, -4
 1580 0002 83B0     		sub	sp, sp, #12
 1581              	.LCFI67:
 1582              		.cfi_def_cfa_offset 16
 1583 0004 00AF     		add	r7, sp, #0
 1584              	.LCFI68:
 1585              		.cfi_def_cfa_register 7
 1586 0006 7860     		str	r0, [r7, #4]
 1587 0008 0B46     		mov	r3, r1
 1588 000a 7B80     		strh	r3, [r7, #2]	@ movhi
1178:../Libraries/STM32F4xx_StdPeriph_Driver/src/stm32f4xx_spi.c ****   /* Check the parameters */
1179:../Libraries/STM32F4xx_StdPeriph_Driver/src/stm32f4xx_spi.c ****   assert_param(IS_SPI_ALL_PERIPH_EXT(SPIx));
1180:../Libraries/STM32F4xx_StdPeriph_Driver/src/stm32f4xx_spi.c ****   assert_param(IS_SPI_I2S_CLEAR_FLAG(SPI_I2S_FLAG));
1181:../Libraries/STM32F4xx_StdPeriph_Driver/src/stm32f4xx_spi.c ****     
1182:../Libraries/STM32F4xx_StdPeriph_Driver/src/stm32f4xx_spi.c ****   /* Clear the selected SPI CRC Error (CRCERR) flag */
1183:../Libraries/STM32F4xx_StdPeriph_Driver/src/stm32f4xx_spi.c ****   SPIx->SR = (uint16_t)~SPI_I2S_FLAG;
 1589              		.loc 1 1183 0
 1590 000c 7B88     		ldrh	r3, [r7, #2]	@ movhi
 1591 000e 6FEA0303 		mvn	r3, r3
 1592 0012 9AB2     		uxth	r2, r3
 1593 0014 7B68     		ldr	r3, [r7, #4]
 1594 0016 1A81     		strh	r2, [r3, #8]	@ movhi
1184:../Libraries/STM32F4xx_StdPeriph_Driver/src/stm32f4xx_spi.c **** }
 1595              		.loc 1 1184 0
 1596 0018 07F10C07 		add	r7, r7, #12
 1597 001c BD46     		mov	sp, r7
 1598 001e 80BC     		pop	{r7}
 1599 0020 7047     		bx	lr
 1600              		.cfi_endproc
 1601              	.LFE132:
 1603 0022 00BF     		.section	.text.SPI_I2S_GetITStatus,"ax",%progbits
 1604              		.align	2
 1605              		.global	SPI_I2S_GetITStatus
 1606              		.thumb
 1607              		.thumb_func
 1609              	SPI_I2S_GetITStatus:
 1610              	.LFB133:
1185:../Libraries/STM32F4xx_StdPeriph_Driver/src/stm32f4xx_spi.c **** 
1186:../Libraries/STM32F4xx_StdPeriph_Driver/src/stm32f4xx_spi.c **** /**
1187:../Libraries/STM32F4xx_StdPeriph_Driver/src/stm32f4xx_spi.c ****   * @brief  Checks whether the specified SPIx/I2Sx interrupt has occurred or not.
1188:../Libraries/STM32F4xx_StdPeriph_Driver/src/stm32f4xx_spi.c ****   * @param  SPIx: To select the SPIx/I2Sx peripheral, where x can be: 1, 2 or 3 
1189:../Libraries/STM32F4xx_StdPeriph_Driver/src/stm32f4xx_spi.c ****   *         in SPI mode or 2 or 3 in I2S mode or I2Sxext for I2S full duplex mode.  
1190:../Libraries/STM32F4xx_StdPeriph_Driver/src/stm32f4xx_spi.c ****   * @param  SPI_I2S_IT: specifies the SPI interrupt source to check. 
1191:../Libraries/STM32F4xx_StdPeriph_Driver/src/stm32f4xx_spi.c ****   *          This parameter can be one of the following values:
1192:../Libraries/STM32F4xx_StdPeriph_Driver/src/stm32f4xx_spi.c ****   *            @arg SPI_I2S_IT_TXE: Transmit buffer empty interrupt.
1193:../Libraries/STM32F4xx_StdPeriph_Driver/src/stm32f4xx_spi.c ****   *            @arg SPI_I2S_IT_RXNE: Receive buffer not empty interrupt.
1194:../Libraries/STM32F4xx_StdPeriph_Driver/src/stm32f4xx_spi.c ****   *            @arg SPI_I2S_IT_OVR: Overrun interrupt.
1195:../Libraries/STM32F4xx_StdPeriph_Driver/src/stm32f4xx_spi.c ****   *            @arg SPI_IT_MODF: Mode Fault interrupt.
1196:../Libraries/STM32F4xx_StdPeriph_Driver/src/stm32f4xx_spi.c ****   *            @arg SPI_IT_CRCERR: CRC Error interrupt.
1197:../Libraries/STM32F4xx_StdPeriph_Driver/src/stm32f4xx_spi.c ****   *            @arg I2S_IT_UDR: Underrun interrupt.  
1198:../Libraries/STM32F4xx_StdPeriph_Driver/src/stm32f4xx_spi.c ****   *            @arg SPI_I2S_IT_TIFRFE: Format Error interrupt.  
1199:../Libraries/STM32F4xx_StdPeriph_Driver/src/stm32f4xx_spi.c ****   * @retval The new state of SPI_I2S_IT (SET or RESET).
1200:../Libraries/STM32F4xx_StdPeriph_Driver/src/stm32f4xx_spi.c ****   */
1201:../Libraries/STM32F4xx_StdPeriph_Driver/src/stm32f4xx_spi.c **** ITStatus SPI_I2S_GetITStatus(SPI_TypeDef* SPIx, uint8_t SPI_I2S_IT)
1202:../Libraries/STM32F4xx_StdPeriph_Driver/src/stm32f4xx_spi.c **** {
 1611              		.loc 1 1202 0
 1612              		.cfi_startproc
 1613              		@ args = 0, pretend = 0, frame = 16
 1614              		@ frame_needed = 1, uses_anonymous_args = 0
 1615              		@ link register save eliminated.
 1616 0000 80B4     		push	{r7}
 1617              	.LCFI69:
 1618              		.cfi_def_cfa_offset 4
 1619              		.cfi_offset 7, -4
 1620 0002 85B0     		sub	sp, sp, #20
 1621              	.LCFI70:
 1622              		.cfi_def_cfa_offset 24
 1623 0004 00AF     		add	r7, sp, #0
 1624              	.LCFI71:
 1625              		.cfi_def_cfa_register 7
 1626 0006 7860     		str	r0, [r7, #4]
 1627 0008 0B46     		mov	r3, r1
 1628 000a FB70     		strb	r3, [r7, #3]
1203:../Libraries/STM32F4xx_StdPeriph_Driver/src/stm32f4xx_spi.c ****   ITStatus bitstatus = RESET;
 1629              		.loc 1 1203 0
 1630 000c 4FF00003 		mov	r3, #0
 1631 0010 FB73     		strb	r3, [r7, #15]
1204:../Libraries/STM32F4xx_StdPeriph_Driver/src/stm32f4xx_spi.c ****   uint16_t itpos = 0, itmask = 0, enablestatus = 0;
 1632              		.loc 1 1204 0
 1633 0012 4FF00003 		mov	r3, #0
 1634 0016 BB81     		strh	r3, [r7, #12]	@ movhi
 1635 0018 4FF00003 		mov	r3, #0
 1636 001c 7B81     		strh	r3, [r7, #10]	@ movhi
 1637 001e 4FF00003 		mov	r3, #0
 1638 0022 3B81     		strh	r3, [r7, #8]	@ movhi
1205:../Libraries/STM32F4xx_StdPeriph_Driver/src/stm32f4xx_spi.c **** 
1206:../Libraries/STM32F4xx_StdPeriph_Driver/src/stm32f4xx_spi.c ****   /* Check the parameters */
1207:../Libraries/STM32F4xx_StdPeriph_Driver/src/stm32f4xx_spi.c ****   assert_param(IS_SPI_ALL_PERIPH_EXT(SPIx));
1208:../Libraries/STM32F4xx_StdPeriph_Driver/src/stm32f4xx_spi.c ****   assert_param(IS_SPI_I2S_GET_IT(SPI_I2S_IT));
1209:../Libraries/STM32F4xx_StdPeriph_Driver/src/stm32f4xx_spi.c **** 
1210:../Libraries/STM32F4xx_StdPeriph_Driver/src/stm32f4xx_spi.c ****   /* Get the SPI_I2S_IT index */
1211:../Libraries/STM32F4xx_StdPeriph_Driver/src/stm32f4xx_spi.c ****   itpos = 0x01 << (SPI_I2S_IT & 0x0F);
 1639              		.loc 1 1211 0
 1640 0024 FB78     		ldrb	r3, [r7, #3]	@ zero_extendqisi2
 1641 0026 03F00F03 		and	r3, r3, #15
 1642 002a 4FF00102 		mov	r2, #1
 1643 002e 02FA03F3 		lsl	r3, r2, r3
 1644 0032 BB81     		strh	r3, [r7, #12]	@ movhi
1212:../Libraries/STM32F4xx_StdPeriph_Driver/src/stm32f4xx_spi.c **** 
1213:../Libraries/STM32F4xx_StdPeriph_Driver/src/stm32f4xx_spi.c ****   /* Get the SPI_I2S_IT IT mask */
1214:../Libraries/STM32F4xx_StdPeriph_Driver/src/stm32f4xx_spi.c ****   itmask = SPI_I2S_IT >> 4;
 1645              		.loc 1 1214 0
 1646 0034 FB78     		ldrb	r3, [r7, #3]	@ zero_extendqisi2
 1647 0036 4FEA1313 		lsr	r3, r3, #4
 1648 003a DBB2     		uxtb	r3, r3
 1649 003c 7B81     		strh	r3, [r7, #10]	@ movhi
1215:../Libraries/STM32F4xx_StdPeriph_Driver/src/stm32f4xx_spi.c **** 
1216:../Libraries/STM32F4xx_StdPeriph_Driver/src/stm32f4xx_spi.c ****   /* Set the IT mask */
1217:../Libraries/STM32F4xx_StdPeriph_Driver/src/stm32f4xx_spi.c ****   itmask = 0x01 << itmask;
 1650              		.loc 1 1217 0
 1651 003e 7B89     		ldrh	r3, [r7, #10]
 1652 0040 4FF00102 		mov	r2, #1
 1653 0044 02FA03F3 		lsl	r3, r2, r3
 1654 0048 7B81     		strh	r3, [r7, #10]	@ movhi
1218:../Libraries/STM32F4xx_StdPeriph_Driver/src/stm32f4xx_spi.c **** 
1219:../Libraries/STM32F4xx_StdPeriph_Driver/src/stm32f4xx_spi.c ****   /* Get the SPI_I2S_IT enable bit status */
1220:../Libraries/STM32F4xx_StdPeriph_Driver/src/stm32f4xx_spi.c ****   enablestatus = (SPIx->CR2 & itmask) ;
 1655              		.loc 1 1220 0
 1656 004a 7B68     		ldr	r3, [r7, #4]
 1657 004c 9B88     		ldrh	r3, [r3, #4]	@ movhi
 1658 004e 9AB2     		uxth	r2, r3
 1659 0050 7B89     		ldrh	r3, [r7, #10]	@ movhi
 1660 0052 1340     		ands	r3, r3, r2
 1661 0054 3B81     		strh	r3, [r7, #8]	@ movhi
1221:../Libraries/STM32F4xx_StdPeriph_Driver/src/stm32f4xx_spi.c **** 
1222:../Libraries/STM32F4xx_StdPeriph_Driver/src/stm32f4xx_spi.c ****   /* Check the status of the specified SPI interrupt */
1223:../Libraries/STM32F4xx_StdPeriph_Driver/src/stm32f4xx_spi.c ****   if (((SPIx->SR & itpos) != (uint16_t)RESET) && enablestatus)
 1662              		.loc 1 1223 0
 1663 0056 7B68     		ldr	r3, [r7, #4]
 1664 0058 1B89     		ldrh	r3, [r3, #8]	@ movhi
 1665 005a 9AB2     		uxth	r2, r3
 1666 005c BB89     		ldrh	r3, [r7, #12]	@ movhi
 1667 005e 1340     		ands	r3, r3, r2
 1668 0060 9BB2     		uxth	r3, r3
 1669 0062 002B     		cmp	r3, #0
 1670 0064 06D0     		beq	.L63
 1671              		.loc 1 1223 0 is_stmt 0 discriminator 1
 1672 0066 3B89     		ldrh	r3, [r7, #8]
 1673 0068 002B     		cmp	r3, #0
 1674 006a 03D0     		beq	.L63
1224:../Libraries/STM32F4xx_StdPeriph_Driver/src/stm32f4xx_spi.c ****   {
1225:../Libraries/STM32F4xx_StdPeriph_Driver/src/stm32f4xx_spi.c ****     /* SPI_I2S_IT is set */
1226:../Libraries/STM32F4xx_StdPeriph_Driver/src/stm32f4xx_spi.c ****     bitstatus = SET;
 1675              		.loc 1 1226 0 is_stmt 1
 1676 006c 4FF00103 		mov	r3, #1
 1677 0070 FB73     		strb	r3, [r7, #15]
 1678 0072 02E0     		b	.L64
 1679              	.L63:
1227:../Libraries/STM32F4xx_StdPeriph_Driver/src/stm32f4xx_spi.c ****   }
1228:../Libraries/STM32F4xx_StdPeriph_Driver/src/stm32f4xx_spi.c ****   else
1229:../Libraries/STM32F4xx_StdPeriph_Driver/src/stm32f4xx_spi.c ****   {
1230:../Libraries/STM32F4xx_StdPeriph_Driver/src/stm32f4xx_spi.c ****     /* SPI_I2S_IT is reset */
1231:../Libraries/STM32F4xx_StdPeriph_Driver/src/stm32f4xx_spi.c ****     bitstatus = RESET;
 1680              		.loc 1 1231 0
 1681 0074 4FF00003 		mov	r3, #0
 1682 0078 FB73     		strb	r3, [r7, #15]
 1683              	.L64:
1232:../Libraries/STM32F4xx_StdPeriph_Driver/src/stm32f4xx_spi.c ****   }
1233:../Libraries/STM32F4xx_StdPeriph_Driver/src/stm32f4xx_spi.c ****   /* Return the SPI_I2S_IT status */
1234:../Libraries/STM32F4xx_StdPeriph_Driver/src/stm32f4xx_spi.c ****   return bitstatus;
 1684              		.loc 1 1234 0
 1685 007a FB7B     		ldrb	r3, [r7, #15]	@ zero_extendqisi2
1235:../Libraries/STM32F4xx_StdPeriph_Driver/src/stm32f4xx_spi.c **** }
 1686              		.loc 1 1235 0
 1687 007c 1846     		mov	r0, r3
 1688 007e 07F11407 		add	r7, r7, #20
 1689 0082 BD46     		mov	sp, r7
 1690 0084 80BC     		pop	{r7}
 1691 0086 7047     		bx	lr
 1692              		.cfi_endproc
 1693              	.LFE133:
 1695              		.section	.text.SPI_I2S_ClearITPendingBit,"ax",%progbits
 1696              		.align	2
 1697              		.global	SPI_I2S_ClearITPendingBit
 1698              		.thumb
 1699              		.thumb_func
 1701              	SPI_I2S_ClearITPendingBit:
 1702              	.LFB134:
1236:../Libraries/STM32F4xx_StdPeriph_Driver/src/stm32f4xx_spi.c **** 
1237:../Libraries/STM32F4xx_StdPeriph_Driver/src/stm32f4xx_spi.c **** /**
1238:../Libraries/STM32F4xx_StdPeriph_Driver/src/stm32f4xx_spi.c ****   * @brief  Clears the SPIx CRC Error (CRCERR) interrupt pending bit.
1239:../Libraries/STM32F4xx_StdPeriph_Driver/src/stm32f4xx_spi.c ****   * @param  SPIx: To select the SPIx/I2Sx peripheral, where x can be: 1, 2 or 3 
1240:../Libraries/STM32F4xx_StdPeriph_Driver/src/stm32f4xx_spi.c ****   *         in SPI mode or 2 or 3 in I2S mode or I2Sxext for I2S full duplex mode.  
1241:../Libraries/STM32F4xx_StdPeriph_Driver/src/stm32f4xx_spi.c ****   * @param  SPI_I2S_IT: specifies the SPI interrupt pending bit to clear.
1242:../Libraries/STM32F4xx_StdPeriph_Driver/src/stm32f4xx_spi.c ****   *         This function clears only CRCERR interrupt pending bit.   
1243:../Libraries/STM32F4xx_StdPeriph_Driver/src/stm32f4xx_spi.c ****   *            @arg SPI_IT_CRCERR: CRC Error interrupt.
1244:../Libraries/STM32F4xx_StdPeriph_Driver/src/stm32f4xx_spi.c ****   *   
1245:../Libraries/STM32F4xx_StdPeriph_Driver/src/stm32f4xx_spi.c ****   * @note   OVR (OverRun Error) interrupt pending bit is cleared by software 
1246:../Libraries/STM32F4xx_StdPeriph_Driver/src/stm32f4xx_spi.c ****   *          sequence: a read operation to SPI_DR register (SPI_I2S_ReceiveData()) 
1247:../Libraries/STM32F4xx_StdPeriph_Driver/src/stm32f4xx_spi.c ****   *          followed by a read operation to SPI_SR register (SPI_I2S_GetITStatus()).
1248:../Libraries/STM32F4xx_StdPeriph_Driver/src/stm32f4xx_spi.c ****   * @note   UDR (UnderRun Error) interrupt pending bit is cleared by a read 
1249:../Libraries/STM32F4xx_StdPeriph_Driver/src/stm32f4xx_spi.c ****   *          operation to SPI_SR register (SPI_I2S_GetITStatus()).   
1250:../Libraries/STM32F4xx_StdPeriph_Driver/src/stm32f4xx_spi.c ****   * @note   MODF (Mode Fault) interrupt pending bit is cleared by software sequence:
1251:../Libraries/STM32F4xx_StdPeriph_Driver/src/stm32f4xx_spi.c ****   *          a read/write operation to SPI_SR register (SPI_I2S_GetITStatus()) 
1252:../Libraries/STM32F4xx_StdPeriph_Driver/src/stm32f4xx_spi.c ****   *          followed by a write operation to SPI_CR1 register (SPI_Cmd() to enable 
1253:../Libraries/STM32F4xx_StdPeriph_Driver/src/stm32f4xx_spi.c ****   *          the SPI).
1254:../Libraries/STM32F4xx_StdPeriph_Driver/src/stm32f4xx_spi.c ****   * @retval None
1255:../Libraries/STM32F4xx_StdPeriph_Driver/src/stm32f4xx_spi.c ****   */
1256:../Libraries/STM32F4xx_StdPeriph_Driver/src/stm32f4xx_spi.c **** void SPI_I2S_ClearITPendingBit(SPI_TypeDef* SPIx, uint8_t SPI_I2S_IT)
1257:../Libraries/STM32F4xx_StdPeriph_Driver/src/stm32f4xx_spi.c **** {
 1703              		.loc 1 1257 0
 1704              		.cfi_startproc
 1705              		@ args = 0, pretend = 0, frame = 16
 1706              		@ frame_needed = 1, uses_anonymous_args = 0
 1707              		@ link register save eliminated.
 1708 0000 80B4     		push	{r7}
 1709              	.LCFI72:
 1710              		.cfi_def_cfa_offset 4
 1711              		.cfi_offset 7, -4
 1712 0002 85B0     		sub	sp, sp, #20
 1713              	.LCFI73:
 1714              		.cfi_def_cfa_offset 24
 1715 0004 00AF     		add	r7, sp, #0
 1716              	.LCFI74:
 1717              		.cfi_def_cfa_register 7
 1718 0006 7860     		str	r0, [r7, #4]
 1719 0008 0B46     		mov	r3, r1
 1720 000a FB70     		strb	r3, [r7, #3]
1258:../Libraries/STM32F4xx_StdPeriph_Driver/src/stm32f4xx_spi.c ****   uint16_t itpos = 0;
 1721              		.loc 1 1258 0
 1722 000c 4FF00003 		mov	r3, #0
 1723 0010 FB81     		strh	r3, [r7, #14]	@ movhi
1259:../Libraries/STM32F4xx_StdPeriph_Driver/src/stm32f4xx_spi.c ****   /* Check the parameters */
1260:../Libraries/STM32F4xx_StdPeriph_Driver/src/stm32f4xx_spi.c ****   assert_param(IS_SPI_ALL_PERIPH_EXT(SPIx));
1261:../Libraries/STM32F4xx_StdPeriph_Driver/src/stm32f4xx_spi.c ****   assert_param(IS_SPI_I2S_CLEAR_IT(SPI_I2S_IT));
1262:../Libraries/STM32F4xx_StdPeriph_Driver/src/stm32f4xx_spi.c **** 
1263:../Libraries/STM32F4xx_StdPeriph_Driver/src/stm32f4xx_spi.c ****   /* Get the SPI_I2S IT index */
1264:../Libraries/STM32F4xx_StdPeriph_Driver/src/stm32f4xx_spi.c ****   itpos = 0x01 << (SPI_I2S_IT & 0x0F);
 1724              		.loc 1 1264 0
 1725 0012 FB78     		ldrb	r3, [r7, #3]	@ zero_extendqisi2
 1726 0014 03F00F03 		and	r3, r3, #15
 1727 0018 4FF00102 		mov	r2, #1
 1728 001c 02FA03F3 		lsl	r3, r2, r3
 1729 0020 FB81     		strh	r3, [r7, #14]	@ movhi
1265:../Libraries/STM32F4xx_StdPeriph_Driver/src/stm32f4xx_spi.c **** 
1266:../Libraries/STM32F4xx_StdPeriph_Driver/src/stm32f4xx_spi.c ****   /* Clear the selected SPI CRC Error (CRCERR) interrupt pending bit */
1267:../Libraries/STM32F4xx_StdPeriph_Driver/src/stm32f4xx_spi.c ****   SPIx->SR = (uint16_t)~itpos;
 1730              		.loc 1 1267 0
 1731 0022 FB89     		ldrh	r3, [r7, #14]	@ movhi
 1732 0024 6FEA0303 		mvn	r3, r3
 1733 0028 9AB2     		uxth	r2, r3
 1734 002a 7B68     		ldr	r3, [r7, #4]
 1735 002c 1A81     		strh	r2, [r3, #8]	@ movhi
1268:../Libraries/STM32F4xx_StdPeriph_Driver/src/stm32f4xx_spi.c **** }
 1736              		.loc 1 1268 0
 1737 002e 07F11407 		add	r7, r7, #20
 1738 0032 BD46     		mov	sp, r7
 1739 0034 80BC     		pop	{r7}
 1740 0036 7047     		bx	lr
 1741              		.cfi_endproc
 1742              	.LFE134:
 1744              		.text
 1745              	.Letext0:
 1746              		.file 2 "c:\\program files (x86)\\codesourcery\\sourcery_codebench_lite_for_arm_eabi\\bin\\../lib/
 1747              		.file 3 "C:\\Users\\Anthony.Paterson@opus.co\\Documents\\git\\blink\\blink\\Device\\STM32F4xx\\Inc
 1748              		.file 4 "C:\\Users\\Anthony.Paterson@opus.co\\Documents\\git\\blink\\blink\\Libraries\\STM32F4xx_S
 1749              		.file 5 "C:\\Users\\Anthony.Paterson@opus.co\\Documents\\git\\blink\\blink\\Libraries\\CMSIS\\Incl
DEFINED SYMBOLS
                            *ABS*:00000000 stm32f4xx_spi.c
C:\Users\ANTHON~1.CO\AppData\Local\Temp\ccPIVvjW.s:19     .text.SPI_I2S_DeInit:00000000 $t
C:\Users\ANTHON~1.CO\AppData\Local\Temp\ccPIVvjW.s:24     .text.SPI_I2S_DeInit:00000000 SPI_I2S_DeInit
C:\Users\ANTHON~1.CO\AppData\Local\Temp\ccPIVvjW.s:98     .text.SPI_Init:00000000 $t
C:\Users\ANTHON~1.CO\AppData\Local\Temp\ccPIVvjW.s:103    .text.SPI_Init:00000000 SPI_Init
C:\Users\ANTHON~1.CO\AppData\Local\Temp\ccPIVvjW.s:205    .text.I2S_Init:00000000 $t
C:\Users\ANTHON~1.CO\AppData\Local\Temp\ccPIVvjW.s:210    .text.I2S_Init:00000000 I2S_Init
C:\Users\ANTHON~1.CO\AppData\Local\Temp\ccPIVvjW.s:471    .text.SPI_StructInit:00000000 $t
C:\Users\ANTHON~1.CO\AppData\Local\Temp\ccPIVvjW.s:476    .text.SPI_StructInit:00000000 SPI_StructInit
C:\Users\ANTHON~1.CO\AppData\Local\Temp\ccPIVvjW.s:539    .text.I2S_StructInit:00000000 $t
C:\Users\ANTHON~1.CO\AppData\Local\Temp\ccPIVvjW.s:544    .text.I2S_StructInit:00000000 I2S_StructInit
C:\Users\ANTHON~1.CO\AppData\Local\Temp\ccPIVvjW.s:595    .text.SPI_Cmd:00000000 $t
C:\Users\ANTHON~1.CO\AppData\Local\Temp\ccPIVvjW.s:600    .text.SPI_Cmd:00000000 SPI_Cmd
C:\Users\ANTHON~1.CO\AppData\Local\Temp\ccPIVvjW.s:652    .text.I2S_Cmd:00000000 $t
C:\Users\ANTHON~1.CO\AppData\Local\Temp\ccPIVvjW.s:657    .text.I2S_Cmd:00000000 I2S_Cmd
C:\Users\ANTHON~1.CO\AppData\Local\Temp\ccPIVvjW.s:709    .text.SPI_DataSizeConfig:00000000 $t
C:\Users\ANTHON~1.CO\AppData\Local\Temp\ccPIVvjW.s:714    .text.SPI_DataSizeConfig:00000000 SPI_DataSizeConfig
C:\Users\ANTHON~1.CO\AppData\Local\Temp\ccPIVvjW.s:760    .text.SPI_BiDirectionalLineConfig:00000000 $t
C:\Users\ANTHON~1.CO\AppData\Local\Temp\ccPIVvjW.s:765    .text.SPI_BiDirectionalLineConfig:00000000 SPI_BiDirectionalLineConfig
C:\Users\ANTHON~1.CO\AppData\Local\Temp\ccPIVvjW.s:817    .text.SPI_NSSInternalSoftwareConfig:00000000 $t
C:\Users\ANTHON~1.CO\AppData\Local\Temp\ccPIVvjW.s:822    .text.SPI_NSSInternalSoftwareConfig:00000000 SPI_NSSInternalSoftwareConfig
C:\Users\ANTHON~1.CO\AppData\Local\Temp\ccPIVvjW.s:875    .text.SPI_SSOutputCmd:00000000 $t
C:\Users\ANTHON~1.CO\AppData\Local\Temp\ccPIVvjW.s:880    .text.SPI_SSOutputCmd:00000000 SPI_SSOutputCmd
C:\Users\ANTHON~1.CO\AppData\Local\Temp\ccPIVvjW.s:932    .text.SPI_TIModeCmd:00000000 $t
C:\Users\ANTHON~1.CO\AppData\Local\Temp\ccPIVvjW.s:937    .text.SPI_TIModeCmd:00000000 SPI_TIModeCmd
C:\Users\ANTHON~1.CO\AppData\Local\Temp\ccPIVvjW.s:989    .text.I2S_FullDuplexConfig:00000000 $t
C:\Users\ANTHON~1.CO\AppData\Local\Temp\ccPIVvjW.s:994    .text.I2S_FullDuplexConfig:00000000 I2S_FullDuplexConfig
C:\Users\ANTHON~1.CO\AppData\Local\Temp\ccPIVvjW.s:1101   .text.SPI_I2S_ReceiveData:00000000 $t
C:\Users\ANTHON~1.CO\AppData\Local\Temp\ccPIVvjW.s:1106   .text.SPI_I2S_ReceiveData:00000000 SPI_I2S_ReceiveData
C:\Users\ANTHON~1.CO\AppData\Local\Temp\ccPIVvjW.s:1138   .text.SPI_I2S_SendData:00000000 $t
C:\Users\ANTHON~1.CO\AppData\Local\Temp\ccPIVvjW.s:1143   .text.SPI_I2S_SendData:00000000 SPI_I2S_SendData
C:\Users\ANTHON~1.CO\AppData\Local\Temp\ccPIVvjW.s:1176   .text.SPI_CalculateCRC:00000000 $t
C:\Users\ANTHON~1.CO\AppData\Local\Temp\ccPIVvjW.s:1181   .text.SPI_CalculateCRC:00000000 SPI_CalculateCRC
C:\Users\ANTHON~1.CO\AppData\Local\Temp\ccPIVvjW.s:1233   .text.SPI_TransmitCRC:00000000 $t
C:\Users\ANTHON~1.CO\AppData\Local\Temp\ccPIVvjW.s:1238   .text.SPI_TransmitCRC:00000000 SPI_TransmitCRC
C:\Users\ANTHON~1.CO\AppData\Local\Temp\ccPIVvjW.s:1273   .text.SPI_GetCRC:00000000 $t
C:\Users\ANTHON~1.CO\AppData\Local\Temp\ccPIVvjW.s:1278   .text.SPI_GetCRC:00000000 SPI_GetCRC
C:\Users\ANTHON~1.CO\AppData\Local\Temp\ccPIVvjW.s:1328   .text.SPI_GetCRCPolynomial:00000000 $t
C:\Users\ANTHON~1.CO\AppData\Local\Temp\ccPIVvjW.s:1333   .text.SPI_GetCRCPolynomial:00000000 SPI_GetCRCPolynomial
C:\Users\ANTHON~1.CO\AppData\Local\Temp\ccPIVvjW.s:1365   .text.SPI_I2S_DMACmd:00000000 $t
C:\Users\ANTHON~1.CO\AppData\Local\Temp\ccPIVvjW.s:1370   .text.SPI_I2S_DMACmd:00000000 SPI_I2S_DMACmd
C:\Users\ANTHON~1.CO\AppData\Local\Temp\ccPIVvjW.s:1428   .text.SPI_I2S_ITConfig:00000000 $t
C:\Users\ANTHON~1.CO\AppData\Local\Temp\ccPIVvjW.s:1433   .text.SPI_I2S_ITConfig:00000000 SPI_I2S_ITConfig
C:\Users\ANTHON~1.CO\AppData\Local\Temp\ccPIVvjW.s:1506   .text.SPI_I2S_GetFlagStatus:00000000 $t
C:\Users\ANTHON~1.CO\AppData\Local\Temp\ccPIVvjW.s:1511   .text.SPI_I2S_GetFlagStatus:00000000 SPI_I2S_GetFlagStatus
C:\Users\ANTHON~1.CO\AppData\Local\Temp\ccPIVvjW.s:1564   .text.SPI_I2S_ClearFlag:00000000 $t
C:\Users\ANTHON~1.CO\AppData\Local\Temp\ccPIVvjW.s:1569   .text.SPI_I2S_ClearFlag:00000000 SPI_I2S_ClearFlag
C:\Users\ANTHON~1.CO\AppData\Local\Temp\ccPIVvjW.s:1604   .text.SPI_I2S_GetITStatus:00000000 $t
C:\Users\ANTHON~1.CO\AppData\Local\Temp\ccPIVvjW.s:1609   .text.SPI_I2S_GetITStatus:00000000 SPI_I2S_GetITStatus
C:\Users\ANTHON~1.CO\AppData\Local\Temp\ccPIVvjW.s:1696   .text.SPI_I2S_ClearITPendingBit:00000000 $t
C:\Users\ANTHON~1.CO\AppData\Local\Temp\ccPIVvjW.s:1701   .text.SPI_I2S_ClearITPendingBit:00000000 SPI_I2S_ClearITPendingBit
                     .debug_frame:00000010 $d

UNDEFINED SYMBOLS
RCC_APB2PeriphResetCmd
RCC_APB1PeriphResetCmd
